
out.elf:     file format elf32-tradlittlemips


Disassembly of section .config_BFC02FF0:

bfc02ff0 <__config_BFC02FF0>:
bfc02ff0:	ff ff fe fa                                         ....

Disassembly of section .config_BFC02FF4:

bfc02ff4 <__config_BFC02FF4>:
bfc02ff4:	d9 79 f8 ff                                         .y..

Disassembly of section .config_BFC02FF8:

bfc02ff8 <__config_BFC02FF8>:
bfc02ff8:	db ce 6c ff                                         ..l.

Disassembly of section .config_BFC02FFC:

bfc02ffc <__config_BFC02FFC>:
bfc02ffc:	ff ff ff 7e                                         ...~

Disassembly of section .reset:

bd001970 <_reset>:
bd001970:	0f40065e 	jal	bd001978 <_startup>
bd001974:	00000000 	nop

bd001978 <_startup>:
bd001978:	401a6000 	mfc0	k0,c0_status
bd00197c:	7f5a04c0 	ext	k0,k0,0x13,0x1
bd001980:	13400005 	beqz	k0,bd001998 <_no_nmi>
bd001984:	00000000 	nop
bd001988:	3c1a9d00 	lui	k0,0x9d00
bd00198c:	275a6318 	addiu	k0,k0,25368
bd001990:	03400008 	jr	k0
bd001994:	00000000 	nop

bd001998 <_no_nmi>:
bd001998:	3c1da002 	lui	sp,0xa002
bd00199c:	27bdfff8 	addiu	sp,sp,-8
bd0019a0:	3c1ca000 	lui	gp,0xa000
bd0019a4:	279c7ff0 	addiu	gp,gp,32752
bd0019a8:	40096002 	mfc0	t1,c0_srsctl
bd0019ac:	01205820 	add	t3,t1,zero
bd0019b0:	7d2a1e80 	ext	t2,t1,0x1a,0x4
bd0019b4:	7d494984 	ins	t1,t2,0x6,0x4
bd0019b8:	40896002 	mtc0	t1,c0_srsctl
bd0019bc:	000000c0 	ehb
bd0019c0:	41dce000 	wrpgpr	gp,gp
bd0019c4:	408b6002 	mtc0	t3,c0_srsctl
bd0019c8:	000000c0 	ehb
bd0019cc:	3c089d00 	lui	t0,0x9d00
bd0019d0:	25086360 	addiu	t0,t0,25440
bd0019d4:	0100f809 	jalr	t0
bd0019d8:	00000000 	nop

bd0019dc <_start_bss_init>:
bd0019dc:	3c08a000 	lui	t0,0xa000
bd0019e0:	25080000 	addiu	t0,t0,0
bd0019e4:	3c09a000 	lui	t1,0xa000
bd0019e8:	25290004 	addiu	t1,t1,4
bd0019ec:	10000003 	b	bd0019fc <_bss_check>
bd0019f0:	00000000 	nop

bd0019f4 <_bss_init>:
bd0019f4:	ad000000 	sw	zero,0(t0)
bd0019f8:	25080004 	addiu	t0,t0,4

bd0019fc <_bss_check>:
bd0019fc:	0109082b 	sltu	at,t0,t1
bd001a00:	1420fffc 	bnez	at,bd0019f4 <_bss_init>
bd001a04:	00000000 	nop
bd001a08:	3c089d00 	lui	t0,0x9d00
bd001a0c:	25085bd4 	addiu	t0,t0,23508
bd001a10:	0100f809 	jalr	t0
bd001a14:	00000000 	nop
bd001a18:	3c090000 	lui	t1,0x0
bd001a1c:	25290000 	addiu	t1,t1,0
bd001a20:	11200010 	beqz	t1,bd001a64 <_ramfunc_done>
bd001a24:	00000000 	nop
bd001a28:	3c090002 	lui	t1,0x2
bd001a2c:	25290000 	addiu	t1,t1,0
bd001a30:	3c0abf88 	lui	t2,0xbf88
bd001a34:	254a2010 	addiu	t2,t2,8208
bd001a38:	ad490000 	sw	t1,0(t2)
bd001a3c:	3c090002 	lui	t1,0x2
bd001a40:	25290000 	addiu	t1,t1,0
bd001a44:	3c0abf88 	lui	t2,0xbf88
bd001a48:	254a2020 	addiu	t2,t2,8224
bd001a4c:	ad490000 	sw	t1,0(t2)
bd001a50:	3c090002 	lui	t1,0x2
bd001a54:	25290000 	addiu	t1,t1,0
bd001a58:	3c0abf88 	lui	t2,0xbf88
bd001a5c:	254a2030 	addiu	t2,t2,8240
bd001a60:	ad490000 	sw	t1,0(t2)

bd001a64 <_ramfunc_done>:
bd001a64:	40804800 	mtc0	zero,c0_count
bd001a68:	240affff 	li	t2,-1
bd001a6c:	408a5800 	mtc0	t2,c0_compare
bd001a70:	3c080040 	lui	t0,0x40
bd001a74:	400a6000 	mfc0	t2,c0_status
bd001a78:	010a5025 	or	t2,t0,t2
bd001a7c:	408a6000 	mtc0	t2,c0_status
bd001a80:	3c099d00 	lui	t1,0x9d00
bd001a84:	25290000 	addiu	t1,t1,0
bd001a88:	000000c0 	ehb
bd001a8c:	40897801 	mtc0	t1,c0_ebase
bd001a90:	3c090000 	lui	t1,0x0
bd001a94:	25290001 	addiu	t1,t1,1
bd001a98:	240a0000 	li	t2,0
bd001a9c:	7d2a4944 	ins	t2,t1,0x5,0x5
bd001aa0:	408a6001 	mtc0	t2,c0_intctl
bd001aa4:	3c090080 	lui	t1,0x80
bd001aa8:	40896800 	mtc0	t1,c0_cause
bd001aac:	40088000 	mfc0	t0,c0_config
bd001ab0:	7d090580 	ext	t1,t0,0x16,0x1
bd001ab4:	00094c40 	sll	t1,t1,0x11
bd001ab8:	40086000 	mfc0	t0,c0_status
bd001abc:	3c010058 	lui	at,0x58
bd001ac0:	01014024 	and	t0,t0,at
bd001ac4:	01284025 	or	t0,t1,t0
bd001ac8:	40886000 	mtc0	t0,c0_status
bd001acc:	000000c0 	ehb
bd001ad0:	3c089d00 	lui	t0,0x9d00
bd001ad4:	25086368 	addiu	t0,t0,25448
bd001ad8:	0100f809 	jalr	t0
bd001adc:	00000000 	nop
bd001ae0:	40086000 	mfc0	t0,c0_status
bd001ae4:	3c01ffbf 	lui	at,0xffbf
bd001ae8:	3421ffff 	ori	at,at,0xffff
bd001aec:	01014024 	and	t0,t0,at
bd001af0:	40886000 	mtc0	t0,c0_status
bd001af4:	30840000 	andi	a0,a0,0x0
bd001af8:	30a50000 	andi	a1,a1,0x0
bd001afc:	3c089d00 	lui	t0,0x9d00
bd001b00:	25085ee8 	addiu	t0,t0,24296
bd001b04:	01000008 	jr	t0
bd001b08:	00000000 	nop

Disassembly of section .bev_excpt:

bd001cf0 <_bev_exception>:
bd001cf0:	3c1a9d00 	lui	k0,0x9d00
bd001cf4:	275a5fd4 	addiu	k0,k0,24532
bd001cf8:	03400008 	jr	k0
bd001cfc:	00000000 	nop

Disassembly of section .app_excpt:

9d000180 <_gen_exception>:
9d000180:	3c1a9d00 	lui	k0,0x9d00
9d000184:	275a5914 	addiu	k0,k0,22804
9d000188:	03400008 	jr	k0
9d00018c:	00000000 	nop

Disassembly of section .vector_0:

9d000200 <__vector_dispatch_0>:
9d000200:	0b401819 	j	9d006064 <_DefaultInterrupt>
9d000204:	00000000 	nop

Disassembly of section .vector_1:

9d000220 <__vector_dispatch_1>:
9d000220:	0b401819 	j	9d006064 <_DefaultInterrupt>
9d000224:	00000000 	nop

Disassembly of section .vector_2:

9d000240 <__vector_dispatch_2>:
9d000240:	0b401819 	j	9d006064 <_DefaultInterrupt>
9d000244:	00000000 	nop

Disassembly of section .vector_3:

9d000260 <__vector_dispatch_3>:
9d000260:	0b401819 	j	9d006064 <_DefaultInterrupt>
9d000264:	00000000 	nop

Disassembly of section .vector_4:

9d000280 <__vector_dispatch_4>:
9d000280:	0b401819 	j	9d006064 <_DefaultInterrupt>
9d000284:	00000000 	nop

Disassembly of section .vector_5:

9d0002a0 <__vector_dispatch_5>:
9d0002a0:	0b401819 	j	9d006064 <_DefaultInterrupt>
9d0002a4:	00000000 	nop

Disassembly of section .vector_6:

9d0002c0 <__vector_dispatch_6>:
9d0002c0:	0b401819 	j	9d006064 <_DefaultInterrupt>
9d0002c4:	00000000 	nop

Disassembly of section .vector_7:

9d0002e0 <__vector_dispatch_7>:
9d0002e0:	0b401152 	j	9d004548 <Ext1ISR>
9d0002e4:	00000000 	nop

Disassembly of section .vector_8:

9d000300 <__vector_dispatch_8>:
9d000300:	0b401819 	j	9d006064 <_DefaultInterrupt>
9d000304:	00000000 	nop

Disassembly of section .vector_9:

9d000320 <__vector_dispatch_9>:
9d000320:	0b401819 	j	9d006064 <_DefaultInterrupt>
9d000324:	00000000 	nop

Disassembly of section .vector_10:

9d000340 <__vector_dispatch_10>:
9d000340:	0b401819 	j	9d006064 <_DefaultInterrupt>
9d000344:	00000000 	nop

Disassembly of section .vector_11:

9d000360 <__vector_dispatch_11>:
9d000360:	0b401819 	j	9d006064 <_DefaultInterrupt>
9d000364:	00000000 	nop

Disassembly of section .vector_12:

9d000380 <__vector_dispatch_12>:
9d000380:	0b401819 	j	9d006064 <_DefaultInterrupt>
9d000384:	00000000 	nop

Disassembly of section .vector_13:

9d0003a0 <__vector_dispatch_13>:
9d0003a0:	0b401819 	j	9d006064 <_DefaultInterrupt>
9d0003a4:	00000000 	nop

Disassembly of section .vector_14:

9d0003c0 <__vector_dispatch_14>:
9d0003c0:	0b401819 	j	9d006064 <_DefaultInterrupt>
9d0003c4:	00000000 	nop

Disassembly of section .vector_15:

9d0003e0 <__vector_dispatch_15>:
9d0003e0:	0b401819 	j	9d006064 <_DefaultInterrupt>
9d0003e4:	00000000 	nop

Disassembly of section .vector_16:

9d000400 <__vector_dispatch_16>:
9d000400:	0b401819 	j	9d006064 <_DefaultInterrupt>
9d000404:	00000000 	nop

Disassembly of section .vector_17:

9d000420 <__vector_dispatch_17>:
9d000420:	0b401819 	j	9d006064 <_DefaultInterrupt>
9d000424:	00000000 	nop

Disassembly of section .vector_18:

9d000440 <__vector_dispatch_18>:
9d000440:	0b401819 	j	9d006064 <_DefaultInterrupt>
9d000444:	00000000 	nop

Disassembly of section .vector_19:

9d000460 <__vector_dispatch_19>:
9d000460:	0b401819 	j	9d006064 <_DefaultInterrupt>
9d000464:	00000000 	nop

Disassembly of section .vector_20:

9d000480 <__vector_dispatch_20>:
9d000480:	0b401819 	j	9d006064 <_DefaultInterrupt>
9d000484:	00000000 	nop

Disassembly of section .vector_21:

9d0004a0 <__vector_dispatch_21>:
9d0004a0:	0b401819 	j	9d006064 <_DefaultInterrupt>
9d0004a4:	00000000 	nop

Disassembly of section .vector_22:

9d0004c0 <__vector_dispatch_22>:
9d0004c0:	0b401819 	j	9d006064 <_DefaultInterrupt>
9d0004c4:	00000000 	nop

Disassembly of section .vector_23:

9d0004e0 <__vector_dispatch_23>:
9d0004e0:	0b401819 	j	9d006064 <_DefaultInterrupt>
9d0004e4:	00000000 	nop

Disassembly of section .vector_24:

9d000500 <__vector_dispatch_24>:
9d000500:	0b401819 	j	9d006064 <_DefaultInterrupt>
9d000504:	00000000 	nop

Disassembly of section .vector_25:

9d000520 <__vector_dispatch_25>:
9d000520:	0b401819 	j	9d006064 <_DefaultInterrupt>
9d000524:	00000000 	nop

Disassembly of section .vector_26:

9d000540 <__vector_dispatch_26>:
9d000540:	0b401819 	j	9d006064 <_DefaultInterrupt>
9d000544:	00000000 	nop

Disassembly of section .vector_27:

9d000560 <__vector_dispatch_27>:
9d000560:	0b401819 	j	9d006064 <_DefaultInterrupt>
9d000564:	00000000 	nop

Disassembly of section .vector_28:

9d000580 <__vector_dispatch_28>:
9d000580:	0b401819 	j	9d006064 <_DefaultInterrupt>
9d000584:	00000000 	nop

Disassembly of section .vector_29:

9d0005a0 <__vector_dispatch_29>:
9d0005a0:	0b401819 	j	9d006064 <_DefaultInterrupt>
9d0005a4:	00000000 	nop

Disassembly of section .vector_30:

9d0005c0 <__vector_dispatch_30>:
9d0005c0:	0b401819 	j	9d006064 <_DefaultInterrupt>
9d0005c4:	00000000 	nop

Disassembly of section .vector_31:

9d0005e0 <__vector_dispatch_31>:
9d0005e0:	0b401819 	j	9d006064 <_DefaultInterrupt>
9d0005e4:	00000000 	nop

Disassembly of section .vector_32:

9d000600 <__vector_dispatch_32>:
9d000600:	0b401819 	j	9d006064 <_DefaultInterrupt>
9d000604:	00000000 	nop

Disassembly of section .vector_33:

9d000620 <__vector_dispatch_33>:
9d000620:	0b401819 	j	9d006064 <_DefaultInterrupt>
9d000624:	00000000 	nop

Disassembly of section .vector_34:

9d000640 <__vector_dispatch_34>:
9d000640:	0b401819 	j	9d006064 <_DefaultInterrupt>
9d000644:	00000000 	nop

Disassembly of section .vector_35:

9d000660 <__vector_dispatch_35>:
9d000660:	0b401819 	j	9d006064 <_DefaultInterrupt>
9d000664:	00000000 	nop

Disassembly of section .vector_36:

9d000680 <__vector_dispatch_36>:
9d000680:	0b401819 	j	9d006064 <_DefaultInterrupt>
9d000684:	00000000 	nop

Disassembly of section .vector_37:

9d0006a0 <__vector_dispatch_37>:
9d0006a0:	0b401819 	j	9d006064 <_DefaultInterrupt>
9d0006a4:	00000000 	nop

Disassembly of section .vector_38:

9d0006c0 <__vector_dispatch_38>:
9d0006c0:	0b401819 	j	9d006064 <_DefaultInterrupt>
9d0006c4:	00000000 	nop

Disassembly of section .vector_39:

9d0006e0 <__vector_dispatch_39>:
9d0006e0:	0b401819 	j	9d006064 <_DefaultInterrupt>
9d0006e4:	00000000 	nop

Disassembly of section .vector_40:

9d000700 <__vector_dispatch_40>:
9d000700:	0b401819 	j	9d006064 <_DefaultInterrupt>
9d000704:	00000000 	nop

Disassembly of section .vector_41:

9d000720 <__vector_dispatch_41>:
9d000720:	0b401819 	j	9d006064 <_DefaultInterrupt>
9d000724:	00000000 	nop

Disassembly of section .vector_42:

9d000740 <__vector_dispatch_42>:
9d000740:	0b401819 	j	9d006064 <_DefaultInterrupt>
9d000744:	00000000 	nop

Disassembly of section .vector_43:

9d000760 <__vector_dispatch_43>:
9d000760:	0b401819 	j	9d006064 <_DefaultInterrupt>
9d000764:	00000000 	nop

Disassembly of section .vector_44:

9d000780 <__vector_dispatch_44>:
9d000780:	0b401819 	j	9d006064 <_DefaultInterrupt>
9d000784:	00000000 	nop

Disassembly of section .vector_45:

9d0007a0 <__vector_dispatch_45>:
9d0007a0:	0b401819 	j	9d006064 <_DefaultInterrupt>
9d0007a4:	00000000 	nop

Disassembly of section .vector_46:

9d0007c0 <__vector_dispatch_46>:
9d0007c0:	0b401819 	j	9d006064 <_DefaultInterrupt>
9d0007c4:	00000000 	nop

Disassembly of section .vector_47:

9d0007e0 <__vector_dispatch_47>:
9d0007e0:	0b401819 	j	9d006064 <_DefaultInterrupt>
9d0007e4:	00000000 	nop

Disassembly of section .vector_48:

9d000800 <__vector_dispatch_48>:
9d000800:	0b401819 	j	9d006064 <_DefaultInterrupt>
9d000804:	00000000 	nop

Disassembly of section .vector_49:

9d000820 <__vector_dispatch_49>:
9d000820:	0b401819 	j	9d006064 <_DefaultInterrupt>
9d000824:	00000000 	nop

Disassembly of section .vector_50:

9d000840 <__vector_dispatch_50>:
9d000840:	0b401819 	j	9d006064 <_DefaultInterrupt>
9d000844:	00000000 	nop

Disassembly of section .vector_51:

9d000860 <__vector_dispatch_51>:
9d000860:	0b401819 	j	9d006064 <_DefaultInterrupt>
9d000864:	00000000 	nop

Disassembly of section .rodata:

9d001e00 <.rodata>:
9d001e00:	73657250 	udi0	k1,a1,t6,0x9
9d001e04:	68742073 	0x68742073
9d001e08:	75622065 	jalx	95888194 <_bmxdudba_address+0x95868194>
9d001e0c:	6e6f7474 	0x6e6f7474
9d001e10:	61676120 	0x61676120
9d001e14:	74206e69 	jalx	9081b9a4 <_bmxdudba_address+0x907fb9a4>
9d001e18:	7473206f 	jalx	91cc81bc <_bmxdudba_address+0x91ca81bc>
9d001e1c:	7420706f 	jalx	9081c1bc <_bmxdudba_address+0x907fc1bc>
9d001e20:	74206568 	jalx	908195a0 <_bmxdudba_address+0x907f95a0>
9d001e24:	72656d69 	0x72656d69
9d001e28:	000a0d2e 	0xa0d2e
9d001e2c:	66352e25 	0x66352e25
9d001e30:	63657320 	0x63657320
9d001e34:	73646e6f 	0x73646e6f
9d001e38:	616c6520 	0x616c6520
9d001e3c:	64657370 	0x64657370
9d001e40:	000a0d2e 	0xa0d2e
9d001e44:	66352e25 	0x66352e25
9d001e48:	63657320 	0x63657320
9d001e4c:	0c000000 	jal	90000000 <_bmxdudba_address+0x8ffe0000>
9d001e50:	73657250 	udi0	k1,a1,t6,0x9
9d001e54:	68742073 	0x68742073
9d001e58:	69722065 	0x69722065
9d001e5c:	20746867 	addi	s4,v1,26727
9d001e60:	74736f6d 	jalx	91cdbdb4 <_bmxdudba_address+0x91cbbdb4>
9d001e64:	74756220 	jalx	91d58880 <_bmxdudba_address+0x91d38880>
9d001e68:	206e6f74 	addi	t6,v1,28532
9d001e6c:	73206f74 	0x73206f74
9d001e70:	74726174 	jalx	91c985d0 <_bmxdudba_address+0x91c785d0>
9d001e74:	65687420 	0x65687420
9d001e78:	6d697420 	0x6d697420
9d001e7c:	0d2e7265 	jal	94b9c994 <_bmxdudba_address+0x94b7c994>
9d001e80:	0c00000a 	jal	90000028 <_bmxdudba_address+0x8ffe0028>
9d001e84:	656d6954 	0x656d6954
9d001e88:	616c4520 	0x616c4520
9d001e8c:	64657370 	0x64657370
9d001e90:	0c00003a 	jal	900000e8 <_bmxdudba_address+0x8ffe00e8>
9d001e94:	4c189680 	0x4c189680
9d001e98:	00464e49 	0x464e49
9d001e9c:	00666e69 	0x666e69
9d001ea0:	004e414e 	0x4e414e
9d001ea4:	006e616e 	0x6e616e
9d001ea8:	00000000 	nop
9d001eac:	3ff00000 	0x3ff00000
9d001eb0:	00000000 	nop
9d001eb4:	40240000 	0x40240000
9d001eb8:	00000000 	nop
9d001ebc:	43500000 	c0	0x1500000
9d001ec0:	00000000 	nop
9d001ec4:	40140000 	mfc0	s4,c0_index
9d001ec8:	6c696e28 	0x6c696e28
9d001ecc:	00000029 	0x29
9d001ed0:	00000000 	nop
9d001ed4:	43e00000 	c0	0x1e00000
9d001ed8:	00000000 	nop
9d001edc:	c3e00000 	ll	zero,0(ra)
9d001ee0:	f0000000 	0xf0000000
9d001ee4:	341fffff 	li	ra,0xffff
9d001ee8:	00000000 	nop
9d001eec:	07f00000 	bltzal	ra,9d001ef0 <__vector_dispatch_51+0x1690>
9d001ef0:	00000000 	nop
9d001ef4:	7fe00000 	ext	zero,ra,0x0,0x1
9d001ef8:	00000000 	nop
9d001efc:	03600000 	0x3600000

Disassembly of section ._debug_exception:

bfc00480 <__DbgExecReturn>:
bfc00480:	409bf800 	mtc0	k1,c0_desave
bfc00484:	000000c0 	ehb
bfc00488:	3c1b9d00 	lui	k1,0x9d00
bfc0048c:	277b60ac 	addiu	k1,k1,24748
bfc00490:	13600002 	beqz	k1,bfc0049c <__DbgExecReturn+0x1c>
bfc00494:	00000000 	nop
bfc00498:	409bc000 	mtc0	k1,c0_depc
bfc0049c:	401bf800 	mfc0	k1,c0_desave
bfc004a0:	000000c0 	ehb
bfc004a4:	4200001f 	deret
bfc004a8:	00000000 	nop

Disassembly of section .text.__fmt_fp:

9d001f00 <__fmt_fp>:
9d001f00:	27bdff68 	addiu	sp,sp,-152
9d001f04:	afa700a4 	sw	a3,164(sp)
9d001f08:	8ca20000 	lw	v0,0(a1)
9d001f0c:	afb50084 	sw	s5,132(sp)
9d001f10:	8cd50000 	lw	s5,0(a2)
9d001f14:	afa20020 	sw	v0,32(sp)
9d001f18:	8ca20008 	lw	v0,8(a1)
9d001f1c:	afb60088 	sw	s6,136(sp)
9d001f20:	afb00070 	sw	s0,112(sp)
9d001f24:	afa20024 	sw	v0,36(sp)
9d001f28:	8ca20010 	lw	v0,16(a1)
9d001f2c:	afa40098 	sw	a0,152(sp)
9d001f30:	afa5009c 	sw	a1,156(sp)
9d001f34:	afa20040 	sw	v0,64(sp)
9d001f38:	8cc20004 	lw	v0,4(a2)
9d001f3c:	8cb00004 	lw	s0,4(a1)
9d001f40:	8cb6000c 	lw	s6,12(a1)
9d001f44:	afa2001c 	sw	v0,28(sp)
9d001f48:	8fa2001c 	lw	v0,28(sp)
9d001f4c:	00003025 	move	a2,zero
9d001f50:	00003825 	move	a3,zero
9d001f54:	02a02025 	move	a0,s5
9d001f58:	00402825 	move	a1,v0
9d001f5c:	afbf0094 	sw	ra,148(sp)
9d001f60:	afbe0090 	sw	s8,144(sp)
9d001f64:	afb7008c 	sw	s7,140(sp)
9d001f68:	afb40080 	sw	s4,128(sp)
9d001f6c:	afb3007c 	sw	s3,124(sp)
9d001f70:	afb20078 	sw	s2,120(sp)
9d001f74:	0f4014c0 	jal	9d005300 <dpcmplt>
9d001f78:	afb10074 	sw	s1,116(sp)
9d001f7c:	0440000e 	bltz	v0,9d001fb8 <__fmt_fp+0xb8>
9d001f80:	8fa20020 	lw	v0,32(sp)
9d001f84:	30420004 	andi	v0,v0,0x4
9d001f88:	14400010 	bnez	v0,9d001fcc <__fmt_fp+0xcc>
9d001f8c:	2402002b 	li	v0,43
9d001f90:	8fa20020 	lw	v0,32(sp)
9d001f94:	30420008 	andi	v0,v0,0x8
9d001f98:	afa20028 	sw	v0,40(sp)
9d001f9c:	8fa20024 	lw	v0,36(sp)
9d001fa0:	afa20018 	sw	v0,24(sp)
9d001fa4:	8fa20028 	lw	v0,40(sp)
9d001fa8:	1040000f 	beqz	v0,9d001fe8 <__fmt_fp+0xe8>
9d001fac:	8fa30028 	lw	v1,40(sp)
9d001fb0:	10000006 	b	9d001fcc <__fmt_fp+0xcc>
9d001fb4:	24020020 	li	v0,32
9d001fb8:	8fa3001c 	lw	v1,28(sp)
9d001fbc:	3c028000 	lui	v0,0x8000
9d001fc0:	00431026 	xor	v0,v0,v1
9d001fc4:	afa2001c 	sw	v0,28(sp)
9d001fc8:	2402002d 	li	v0,45
9d001fcc:	a2c20000 	sb	v0,0(s6)
9d001fd0:	8fa20024 	lw	v0,36(sp)
9d001fd4:	2442ffff 	addiu	v0,v0,-1
9d001fd8:	afa20018 	sw	v0,24(sp)
9d001fdc:	24020001 	li	v0,1
9d001fe0:	afa20028 	sw	v0,40(sp)
9d001fe4:	8fa30028 	lw	v1,40(sp)
9d001fe8:	8fa2001c 	lw	v0,28(sp)
9d001fec:	02c31821 	addu	v1,s6,v1
9d001ff0:	7c42f000 	ext	v0,v0,0x0,0x1f
9d001ff4:	16a00024 	bnez	s5,9d002088 <__fmt_fp+0x188>
9d001ff8:	afa3002c 	sw	v1,44(sp)
9d001ffc:	3c037ff0 	lui	v1,0x7ff0
9d002000:	14430022 	bne	v0,v1,9d00208c <__fmt_fp+0x18c>
9d002004:	3c047ff0 	lui	a0,0x7ff0
9d002008:	8fa200a4 	lw	v0,164(sp)
9d00200c:	3c109d00 	lui	s0,0x9d00
9d002010:	2442ffbf 	addiu	v0,v0,-65
9d002014:	2c42001a 	sltiu	v0,v0,26
9d002018:	10400003 	beqz	v0,9d002028 <__fmt_fp+0x128>
9d00201c:	26051e9c 	addiu	a1,s0,7836
9d002020:	3c059d00 	lui	a1,0x9d00
9d002024:	24a51e98 	addiu	a1,a1,7832
9d002028:	0f40187e 	jal	9d0061f8 <strcpy>
9d00202c:	8fa4002c 	lw	a0,44(sp)
9d002030:	26041e9c 	addiu	a0,s0,7836
9d002034:	0f4018d2 	jal	9d006348 <strlen>
9d002038:	00000000 	nop
9d00203c:	8fa30020 	lw	v1,32(sp)
9d002040:	8fa70024 	lw	a3,36(sp)
9d002044:	8fa40098 	lw	a0,152(sp)
9d002048:	afa30010 	sw	v1,16(sp)
9d00204c:	02c02825 	move	a1,s6
9d002050:	0f40154d 	jal	9d005534 <__pad>
9d002054:	00403025 	move	a2,v0
9d002058:	8fbf0094 	lw	ra,148(sp)
9d00205c:	8fbe0090 	lw	s8,144(sp)
9d002060:	8fb7008c 	lw	s7,140(sp)
9d002064:	8fb60088 	lw	s6,136(sp)
9d002068:	8fb50084 	lw	s5,132(sp)
9d00206c:	8fb40080 	lw	s4,128(sp)
9d002070:	8fb3007c 	lw	s3,124(sp)
9d002074:	8fb20078 	lw	s2,120(sp)
9d002078:	8fb10074 	lw	s1,116(sp)
9d00207c:	8fb00070 	lw	s0,112(sp)
9d002080:	03e00008 	jr	ra
9d002084:	27bd0098 	addiu	sp,sp,152
9d002088:	3c047ff0 	lui	a0,0x7ff0
9d00208c:	24830001 	addiu	v1,a0,1
9d002090:	0043182b 	sltu	v1,v0,v1
9d002094:	50600006 	beqzl	v1,9d0020b0 <__fmt_fp+0x1b0>
9d002098:	8fa200a4 	lw	v0,164(sp)
9d00209c:	1444000f 	bne	v0,a0,9d0020dc <__fmt_fp+0x1dc>
9d0020a0:	8fa2001c 	lw	v0,28(sp)
9d0020a4:	12a0000e 	beqz	s5,9d0020e0 <__fmt_fp+0x1e0>
9d0020a8:	00003025 	move	a2,zero
9d0020ac:	8fa200a4 	lw	v0,164(sp)
9d0020b0:	3c109d00 	lui	s0,0x9d00
9d0020b4:	2442ffbf 	addiu	v0,v0,-65
9d0020b8:	2c42001a 	sltiu	v0,v0,26
9d0020bc:	10400003 	beqz	v0,9d0020cc <__fmt_fp+0x1cc>
9d0020c0:	26051ea4 	addiu	a1,s0,7844
9d0020c4:	3c059d00 	lui	a1,0x9d00
9d0020c8:	24a51ea0 	addiu	a1,a1,7840
9d0020cc:	0f40187e 	jal	9d0061f8 <strcpy>
9d0020d0:	8fa4002c 	lw	a0,44(sp)
9d0020d4:	1000ffd7 	b	9d002034 <__fmt_fp+0x134>
9d0020d8:	26041ea4 	addiu	a0,s0,7844
9d0020dc:	00003025 	move	a2,zero
9d0020e0:	00003825 	move	a3,zero
9d0020e4:	02a02025 	move	a0,s5
9d0020e8:	0f401475 	jal	9d0051d4 <__eqdf2>
9d0020ec:	00402825 	move	a1,v0
9d0020f0:	3c139d00 	lui	s3,0x9d00
9d0020f4:	3c039d00 	lui	v1,0x9d00
9d0020f8:	afa30038 	sw	v1,56(sp)
9d0020fc:	8e711ea8 	lw	s1,7848(s3)
9d002100:	8e721eac 	lw	s2,7852(s3)
9d002104:	14400036 	bnez	v0,9d0021e0 <__fmt_fp+0x2e0>
9d002108:	0000b825 	move	s7,zero
9d00210c:	0f4018b2 	jal	9d0062c8 <tolower>
9d002110:	8fa400a4 	lw	a0,164(sp)
9d002114:	7c021420 	seb	v0,v0
9d002118:	afa20030 	sw	v0,48(sp)
9d00211c:	0600019a 	bltz	s0,9d002788 <__fmt_fp+0x888>
9d002120:	24020067 	li	v0,103
9d002124:	8fbe0030 	lw	s8,48(sp)
9d002128:	17c200c5 	bne	s8,v0,9d002440 <__fmt_fp+0x540>
9d00212c:	24020066 	li	v0,102
9d002130:	52000001 	beqzl	s0,9d002138 <__fmt_fp+0x238>
9d002134:	24100001 	li	s0,1
9d002138:	2ae2fffc 	slti	v0,s7,-4
9d00213c:	144000cb 	bnez	v0,9d00246c <__fmt_fp+0x56c>
9d002140:	241e0065 	li	s8,101
9d002144:	02f0102a 	slt	v0,s7,s0
9d002148:	144000b9 	bnez	v0,9d002430 <__fmt_fp+0x530>
9d00214c:	8fa20038 	lw	v0,56(sp)
9d002150:	100000c7 	b	9d002470 <__fmt_fp+0x570>
9d002154:	00000000 	nop
9d002158:	26f70001 	addiu	s7,s7,1
9d00215c:	03c08825 	move	s1,s8
9d002160:	02809025 	move	s2,s4
9d002164:	01003025 	move	a2,t0
9d002168:	01203825 	move	a3,t1
9d00216c:	02202025 	move	a0,s1
9d002170:	02402825 	move	a1,s2
9d002174:	afa80030 	sw	t0,48(sp)
9d002178:	0f401087 	jal	9d00421c <__muldf3>
9d00217c:	afa90034 	sw	t1,52(sp)
9d002180:	0040f025 	move	s8,v0
9d002184:	8fa2001c 	lw	v0,28(sp)
9d002188:	02a03025 	move	a2,s5
9d00218c:	03c02025 	move	a0,s8
9d002190:	00403825 	move	a3,v0
9d002194:	00602825 	move	a1,v1
9d002198:	0f401475 	jal	9d0051d4 <__eqdf2>
9d00219c:	0060a025 	move	s4,v1
9d0021a0:	8fa80030 	lw	t0,48(sp)
9d0021a4:	1840ffec 	blez	v0,9d002158 <__fmt_fp+0x258>
9d0021a8:	8fa90034 	lw	t1,52(sp)
9d0021ac:	3c029d00 	lui	v0,0x9d00
9d0021b0:	8c5e1eb8 	lw	s8,7864(v0)
9d0021b4:	8c421ebc 	lw	v0,7868(v0)
9d0021b8:	0000a025 	move	s4,zero
9d0021bc:	afbe0050 	sw	s8,80(sp)
9d0021c0:	afa20030 	sw	v0,48(sp)
9d0021c4:	afa20058 	sw	v0,88(sp)
9d0021c8:	8fa20038 	lw	v0,56(sp)
9d0021cc:	8c431eb4 	lw	v1,7860(v0)
9d0021d0:	8c421eb0 	lw	v0,7856(v0)
9d0021d4:	afa3004c 	sw	v1,76(sp)
9d0021d8:	10000021 	b	9d002260 <__fmt_fp+0x360>
9d0021dc:	afa20048 	sw	v0,72(sp)
9d0021e0:	3c029d00 	lui	v0,0x9d00
9d0021e4:	8c481eb0 	lw	t0,7856(v0)
9d0021e8:	1000ffde 	b	9d002164 <__fmt_fp+0x264>
9d0021ec:	8c491eb4 	lw	t1,7860(v0)
9d0021f0:	10400014 	beqz	v0,9d002244 <__fmt_fp+0x344>
9d0021f4:	8fa60048 	lw	a2,72(sp)
9d0021f8:	16800013 	bnez	s4,9d002248 <__fmt_fp+0x348>
9d0021fc:	8fa7004c 	lw	a3,76(sp)
9d002200:	8fa2001c 	lw	v0,28(sp)
9d002204:	8fa70030 	lw	a3,48(sp)
9d002208:	02a02025 	move	a0,s5
9d00220c:	03c03025 	move	a2,s8
9d002210:	0f401087 	jal	9d00421c <__muldf3>
9d002214:	00402825 	move	a1,v0
9d002218:	8fa60050 	lw	a2,80(sp)
9d00221c:	8fa70058 	lw	a3,88(sp)
9d002220:	02202025 	move	a0,s1
9d002224:	02402825 	move	a1,s2
9d002228:	0040a825 	move	s5,v0
9d00222c:	0f401087 	jal	9d00421c <__muldf3>
9d002230:	afa3001c 	sw	v1,28(sp)
9d002234:	00408825 	move	s1,v0
9d002238:	00609025 	move	s2,v1
9d00223c:	24140001 	li	s4,1
9d002240:	8fa60048 	lw	a2,72(sp)
9d002244:	8fa7004c 	lw	a3,76(sp)
9d002248:	02202025 	move	a0,s1
9d00224c:	0f400d24 	jal	9d003490 <__divdf3>
9d002250:	02402825 	move	a1,s2
9d002254:	00408825 	move	s1,v0
9d002258:	00609025 	move	s2,v1
9d00225c:	26f7ffff 	addiu	s7,s7,-1
9d002260:	8fa2001c 	lw	v0,28(sp)
9d002264:	02203025 	move	a2,s1
9d002268:	02403825 	move	a3,s2
9d00226c:	02a02025 	move	a0,s5
9d002270:	0f4014c0 	jal	9d005300 <dpcmplt>
9d002274:	00402825 	move	a1,v0
9d002278:	0442ffdd 	bltzl	v0,9d0021f0 <__fmt_fp+0x2f0>
9d00227c:	2ae2fed4 	slti	v0,s7,-300
9d002280:	1000ffa2 	b	9d00210c <__fmt_fp+0x20c>
9d002284:	00000000 	nop
9d002288:	02203025 	move	a2,s1
9d00228c:	02403825 	move	a3,s2
9d002290:	02602025 	move	a0,s3
9d002294:	afac0060 	sw	t4,96(sp)
9d002298:	afab0044 	sw	t3,68(sp)
9d00229c:	0f400d24 	jal	9d003490 <__divdf3>
9d0022a0:	afaa0058 	sw	t2,88(sp)
9d0022a4:	00402025 	move	a0,v0
9d0022a8:	0f40150b 	jal	9d00542c <dpfloor>
9d0022ac:	00602825 	move	a1,v1
9d0022b0:	00602825 	move	a1,v1
9d0022b4:	00402025 	move	a0,v0
9d0022b8:	afa30054 	sw	v1,84(sp)
9d0022bc:	0f4016d1 	jal	9d005b44 <__fixdfsi>
9d0022c0:	afa20050 	sw	v0,80(sp)
9d0022c4:	8fa30048 	lw	v1,72(sp)
9d0022c8:	8fa80050 	lw	t0,80(sp)
9d0022cc:	8fa90054 	lw	t1,84(sp)
9d0022d0:	00621825 	or	v1,v1,v0
9d0022d4:	8faa0058 	lw	t2,88(sp)
9d0022d8:	8fab0044 	lw	t3,68(sp)
9d0022dc:	1460000b 	bnez	v1,9d00230c <__fmt_fp+0x40c>
9d0022e0:	8fac0060 	lw	t4,96(sp)
9d0022e4:	8fa40030 	lw	a0,48(sp)
9d0022e8:	24030067 	li	v1,103
9d0022ec:	14830007 	bne	a0,v1,9d00230c <__fmt_fp+0x40c>
9d0022f0:	00000000 	nop
9d0022f4:	06a00021 	bltz	s5,9d00237c <__fmt_fp+0x47c>
9d0022f8:	258b0001 	addiu	t3,t4,1
9d0022fc:	02801825 	move	v1,s4
9d002300:	02d42021 	addu	a0,s6,s4
9d002304:	10000011 	b	9d00234c <__fmt_fp+0x44c>
9d002308:	01805825 	move	t3,t4
9d00230c:	1600fffc 	bnez	s0,9d002300 <__fmt_fp+0x400>
9d002310:	02801825 	move	v1,s4
9d002314:	06a3fffb 	bgezl	s5,9d002304 <__fmt_fp+0x404>
9d002318:	02d42021 	addu	a0,s6,s4
9d00231c:	8fa30018 	lw	v1,24(sp)
9d002320:	02cb5821 	addu	t3,s6,t3
9d002324:	26940001 	addiu	s4,s4,1
9d002328:	2463ffff 	addiu	v1,v1,-1
9d00232c:	afa30018 	sw	v1,24(sp)
9d002330:	2403002e 	li	v1,46
9d002334:	a1630000 	sb	v1,0(t3)
9d002338:	1000fff0 	b	9d0022fc <__fmt_fp+0x3fc>
9d00233c:	24100001 	li	s0,1
9d002340:	a0850000 	sb	a1,0(a0)
9d002344:	256bffff 	addiu	t3,t3,-1
9d002348:	24840001 	addiu	a0,a0,1
9d00234c:	5560fffc 	bnezl	t3,9d002340 <__fmt_fp+0x440>
9d002350:	24050030 	li	a1,48
9d002354:	8fa40018 	lw	a0,24(sp)
9d002358:	26940001 	addiu	s4,s4,1
9d00235c:	02c31821 	addu	v1,s6,v1
9d002360:	2484ffff 	addiu	a0,a0,-1
9d002364:	008c2023 	subu	a0,a0,t4
9d002368:	028ca021 	addu	s4,s4,t4
9d00236c:	24420030 	addiu	v0,v0,48
9d002370:	006c6021 	addu	t4,v1,t4
9d002374:	afa40018 	sw	a0,24(sp)
9d002378:	a1820000 	sb	v0,0(t4)
9d00237c:	3c0c8000 	lui	t4,0x8000
9d002380:	018a2026 	xor	a0,t4,t2
9d002384:	02203025 	move	a2,s1
9d002388:	02403825 	move	a3,s2
9d00238c:	01202825 	move	a1,t1
9d002390:	afb30010 	sw	s3,16(sp)
9d002394:	afa40014 	sw	a0,20(sp)
9d002398:	01002025 	move	a0,t0
9d00239c:	0f4009e7 	jal	9d00279c <fma>
9d0023a0:	afab0058 	sw	t3,88(sp)
9d0023a4:	8fa60038 	lw	a2,56(sp)
9d0023a8:	8fa7003c 	lw	a3,60(sp)
9d0023ac:	3c0c8000 	lui	t4,0x8000
9d0023b0:	01835026 	xor	t2,t4,v1
9d0023b4:	02202025 	move	a0,s1
9d0023b8:	02402825 	move	a1,s2
9d0023bc:	afaa0050 	sw	t2,80(sp)
9d0023c0:	0f400d24 	jal	9d003490 <__divdf3>
9d0023c4:	00409825 	move	s3,v0
9d0023c8:	8fab0058 	lw	t3,88(sp)
9d0023cc:	00408825 	move	s1,v0
9d0023d0:	00609025 	move	s2,v1
9d0023d4:	26b5ffff 	addiu	s5,s5,-1
9d0023d8:	01606025 	move	t4,t3
9d0023dc:	10000097 	b	9d00263c <__fmt_fp+0x73c>
9d0023e0:	8faa0050 	lw	t2,80(sp)
9d0023e4:	02e7001a 	div	zero,s7,a3
9d0023e8:	00e001f4 	teq	a3,zero,0x7
9d0023ec:	02c34021 	addu	t0,s6,v1
9d0023f0:	00601025 	move	v0,v1
9d0023f4:	00001810 	mfhi	v1
9d0023f8:	24630030 	addiu	v1,v1,48
9d0023fc:	a1030000 	sb	v1,0(t0)
9d002400:	8fa30018 	lw	v1,24(sp)
9d002404:	0000b812 	mflo	s7
9d002408:	2463ffff 	addiu	v1,v1,-1
9d00240c:	100000ae 	b	9d0026c8 <__fmt_fp+0x7c8>
9d002410:	afa30018 	sw	v1,24(sp)
9d002414:	80640000 	lb	a0,0(v1)
9d002418:	8fa30018 	lw	v1,24(sp)
9d00241c:	00621821 	addu	v1,v1,v0
9d002420:	02c31821 	addu	v1,s6,v1
9d002424:	a0640000 	sb	a0,0(v1)
9d002428:	100000ca 	b	9d002754 <__fmt_fp+0x854>
9d00242c:	2442ffff 	addiu	v0,v0,-1
9d002430:	06e1000a 	bgez	s7,9d00245c <__fmt_fp+0x55c>
9d002434:	8fa30030 	lw	v1,48(sp)
9d002438:	241e0066 	li	s8,102
9d00243c:	24020066 	li	v0,102
9d002440:	17c2000a 	bne	s8,v0,9d00246c <__fmt_fp+0x56c>
9d002444:	26100001 	addiu	s0,s0,1
9d002448:	06e10004 	bgez	s7,9d00245c <__fmt_fp+0x55c>
9d00244c:	8fa30030 	lw	v1,48(sp)
9d002450:	8e711ea8 	lw	s1,7848(s3)
9d002454:	8e721eac 	lw	s2,7852(s3)
9d002458:	0000b825 	move	s7,zero
9d00245c:	24020067 	li	v0,103
9d002460:	10620002 	beq	v1,v0,9d00246c <__fmt_fp+0x56c>
9d002464:	241e0066 	li	s8,102
9d002468:	02178021 	addu	s0,s0,s7
9d00246c:	8fa20038 	lw	v0,56(sp)
9d002470:	8fb3001c 	lw	s3,28(sp)
9d002474:	02204825 	move	t1,s1
9d002478:	8c431eb4 	lw	v1,7860(v0)
9d00247c:	8c421eb0 	lw	v0,7856(v0)
9d002480:	02404025 	move	t0,s2
9d002484:	02a05025 	move	t2,s5
9d002488:	00006025 	move	t4,zero
9d00248c:	afa20050 	sw	v0,80(sp)
9d002490:	afa30054 	sw	v1,84(sp)
9d002494:	01203025 	move	a2,t1
9d002498:	01003825 	move	a3,t0
9d00249c:	01402025 	move	a0,t2
9d0024a0:	02602825 	move	a1,s3
9d0024a4:	afac0068 	sw	t4,104(sp)
9d0024a8:	afa90060 	sw	t1,96(sp)
9d0024ac:	afa80064 	sw	t0,100(sp)
9d0024b0:	0f400d24 	jal	9d003490 <__divdf3>
9d0024b4:	afaa0044 	sw	t2,68(sp)
9d0024b8:	00402025 	move	a0,v0
9d0024bc:	0f40150b 	jal	9d00542c <dpfloor>
9d0024c0:	00602825 	move	a1,v1
9d0024c4:	00602825 	move	a1,v1
9d0024c8:	00402025 	move	a0,v0
9d0024cc:	afa3005c 	sw	v1,92(sp)
9d0024d0:	0f4016d1 	jal	9d005b44 <__fixdfsi>
9d0024d4:	afa20058 	sw	v0,88(sp)
9d0024d8:	8faa0058 	lw	t2,88(sp)
9d0024dc:	8fad0044 	lw	t5,68(sp)
9d0024e0:	8fa80064 	lw	t0,100(sp)
9d0024e4:	8fa90060 	lw	t1,96(sp)
9d0024e8:	8fab005c 	lw	t3,92(sp)
9d0024ec:	0260a025 	move	s4,s3
9d0024f0:	3c138000 	lui	s3,0x8000
9d0024f4:	02742026 	xor	a0,s3,s4
9d0024f8:	01203025 	move	a2,t1
9d0024fc:	01003825 	move	a3,t0
9d002500:	01602825 	move	a1,t3
9d002504:	afad0010 	sw	t5,16(sp)
9d002508:	afa40014 	sw	a0,20(sp)
9d00250c:	01402025 	move	a0,t2
9d002510:	afa80044 	sw	t0,68(sp)
9d002514:	0f4009e7 	jal	9d00279c <fma>
9d002518:	afa20048 	sw	v0,72(sp)
9d00251c:	8fa90060 	lw	t1,96(sp)
9d002520:	8fa80044 	lw	t0,68(sp)
9d002524:	8fa60050 	lw	a2,80(sp)
9d002528:	8fa70054 	lw	a3,84(sp)
9d00252c:	01202025 	move	a0,t1
9d002530:	01002825 	move	a1,t0
9d002534:	0040a025 	move	s4,v0
9d002538:	afa20058 	sw	v0,88(sp)
9d00253c:	0f400d24 	jal	9d003490 <__divdf3>
9d002540:	02639826 	xor	s3,s3,v1
9d002544:	8fac0068 	lw	t4,104(sp)
9d002548:	00404825 	move	t1,v0
9d00254c:	00604025 	move	t0,v1
9d002550:	258c0001 	addiu	t4,t4,1
9d002554:	160cffcf 	bne	s0,t4,9d002494 <__fmt_fp+0x594>
9d002558:	8faa0058 	lw	t2,88(sp)
9d00255c:	3c029d00 	lui	v0,0x9d00
9d002560:	8c461ec0 	lw	a2,7872(v0)
9d002564:	8c471ec4 	lw	a3,7876(v0)
9d002568:	01202025 	move	a0,t1
9d00256c:	0f401087 	jal	9d00421c <__muldf3>
9d002570:	00602825 	move	a1,v1
9d002574:	00403025 	move	a2,v0
9d002578:	00603825 	move	a3,v1
9d00257c:	02802025 	move	a0,s4
9d002580:	02602825 	move	a1,s3
9d002584:	afa20050 	sw	v0,80(sp)
9d002588:	0f4014c0 	jal	9d005300 <dpcmplt>
9d00258c:	afa30054 	sw	v1,84(sp)
9d002590:	04400010 	bltz	v0,9d0025d4 <__fmt_fp+0x6d4>
9d002594:	00004025 	move	t0,zero
9d002598:	8fa80050 	lw	t0,80(sp)
9d00259c:	8fa90054 	lw	t1,84(sp)
9d0025a0:	02802025 	move	a0,s4
9d0025a4:	01003025 	move	a2,t0
9d0025a8:	01203825 	move	a3,t1
9d0025ac:	0f401475 	jal	9d0051d4 <__eqdf2>
9d0025b0:	02602825 	move	a1,s3
9d0025b4:	8fa80050 	lw	t0,80(sp)
9d0025b8:	14400007 	bnez	v0,9d0025d8 <__fmt_fp+0x6d8>
9d0025bc:	8fa90054 	lw	t1,84(sp)
9d0025c0:	8fa20048 	lw	v0,72(sp)
9d0025c4:	30420001 	andi	v0,v0,0x1
9d0025c8:	14400004 	bnez	v0,9d0025dc <__fmt_fp+0x6dc>
9d0025cc:	8fa2001c 	lw	v0,28(sp)
9d0025d0:	00004025 	move	t0,zero
9d0025d4:	00004825 	move	t1,zero
9d0025d8:	8fa2001c 	lw	v0,28(sp)
9d0025dc:	02a02025 	move	a0,s5
9d0025e0:	01003025 	move	a2,t0
9d0025e4:	01203825 	move	a3,t1
9d0025e8:	0f400f7d 	jal	9d003df4 <__adddf3>
9d0025ec:	00402825 	move	a1,v0
9d0025f0:	3bd50065 	xori	s5,s8,0x65
9d0025f4:	00409825 	move	s3,v0
9d0025f8:	02e01025 	move	v0,s7
9d0025fc:	0015100a 	movz	v0,zero,s5
9d002600:	0040a825 	move	s5,v0
9d002604:	00501023 	subu	v0,v0,s0
9d002608:	afa2001c 	sw	v0,28(sp)
9d00260c:	8fa20020 	lw	v0,32(sp)
9d002610:	00605025 	move	t2,v1
9d002614:	8fb40028 	lw	s4,40(sp)
9d002618:	30420010 	andi	v0,v0,0x10
9d00261c:	afa20048 	sw	v0,72(sp)
9d002620:	8fa20038 	lw	v0,56(sp)
9d002624:	00006025 	move	t4,zero
9d002628:	00008025 	move	s0,zero
9d00262c:	8c431eb4 	lw	v1,7860(v0)
9d002630:	8c421eb0 	lw	v0,7856(v0)
9d002634:	afa3003c 	sw	v1,60(sp)
9d002638:	afa20038 	sw	v0,56(sp)
9d00263c:	8fa2001c 	lw	v0,28(sp)
9d002640:	10550007 	beq	v0,s5,9d002660 <__fmt_fp+0x760>
9d002644:	02805825 	move	t3,s4
9d002648:	8fa2009c 	lw	v0,156(sp)
9d00264c:	8c420010 	lw	v0,16(v0)
9d002650:	2442fffb 	addiu	v0,v0,-5
9d002654:	0282102b 	sltu	v0,s4,v0
9d002658:	5440ff0b 	bnezl	v0,9d002288 <__fmt_fp+0x388>
9d00265c:	01402825 	move	a1,t2
9d002660:	1600000a 	bnez	s0,9d00268c <__fmt_fp+0x78c>
9d002664:	02d42021 	addu	a0,s6,s4
9d002668:	8fa20020 	lw	v0,32(sp)
9d00266c:	30420010 	andi	v0,v0,0x10
9d002670:	10400007 	beqz	v0,9d002690 <__fmt_fp+0x790>
9d002674:	24020065 	li	v0,101
9d002678:	02cb5821 	addu	t3,s6,t3
9d00267c:	2402002e 	li	v0,46
9d002680:	26940001 	addiu	s4,s4,1
9d002684:	a1620000 	sb	v0,0(t3)
9d002688:	02d42021 	addu	a0,s6,s4
9d00268c:	24020065 	li	v0,101
9d002690:	17c20026 	bne	s8,v0,9d00272c <__fmt_fp+0x82c>
9d002694:	a0800000 	sb	zero,0(a0)
9d002698:	8fa20040 	lw	v0,64(sp)
9d00269c:	00002825 	move	a1,zero
9d0026a0:	2442ffff 	addiu	v0,v0,-1
9d0026a4:	02c21821 	addu	v1,s6,v0
9d0026a8:	06e10003 	bgez	s7,9d0026b8 <__fmt_fp+0x7b8>
9d0026ac:	a0600000 	sb	zero,0(v1)
9d0026b0:	0017b823 	negu	s7,s7
9d0026b4:	24050001 	li	a1,1
9d0026b8:	8fa30040 	lw	v1,64(sp)
9d0026bc:	24060003 	li	a2,3
9d0026c0:	2407000a 	li	a3,10
9d0026c4:	00c33023 	subu	a2,a2,v1
9d0026c8:	16e0ff46 	bnez	s7,9d0023e4 <__fmt_fp+0x4e4>
9d0026cc:	2443ffff 	addiu	v1,v0,-1
9d0026d0:	00c24021 	addu	t0,a2,v0
9d0026d4:	1d00ff43 	bgtz	t0,9d0023e4 <__fmt_fp+0x4e4>
9d0026d8:	00000000 	nop
9d0026dc:	2407002d 	li	a3,45
9d0026e0:	2406002b 	li	a2,43
9d0026e4:	00e5300b 	movn	a2,a3,a1
9d0026e8:	02c31821 	addu	v1,s6,v1
9d0026ec:	a0660000 	sb	a2,0(v1)
9d0026f0:	8fa300a4 	lw	v1,164(sp)
9d0026f4:	24050045 	li	a1,69
9d0026f8:	2442fffe 	addiu	v0,v0,-2
9d0026fc:	2463ffbf 	addiu	v1,v1,-65
9d002700:	2c63001a 	sltiu	v1,v1,26
9d002704:	00a3f00b 	movn	s8,a1,v1
9d002708:	8fa30018 	lw	v1,24(sp)
9d00270c:	02c22821 	addu	a1,s6,v0
9d002710:	0282a02a 	slt	s4,s4,v0
9d002714:	2463fffe 	addiu	v1,v1,-2
9d002718:	a0be0000 	sb	s8,0(a1)
9d00271c:	12800003 	beqz	s4,9d00272c <__fmt_fp+0x82c>
9d002720:	afa30018 	sw	v1,24(sp)
9d002724:	0f40187e 	jal	9d0061f8 <strcpy>
9d002728:	00000000 	nop
9d00272c:	8fa20020 	lw	v0,32(sp)
9d002730:	24030002 	li	v1,2
9d002734:	30420003 	andi	v0,v0,0x3
9d002738:	1443fe3e 	bne	v0,v1,9d002034 <__fmt_fp+0x134>
9d00273c:	02c02025 	move	a0,s6
9d002740:	8fa20018 	lw	v0,24(sp)
9d002744:	1840fe3b 	blez	v0,9d002034 <__fmt_fp+0x134>
9d002748:	00000000 	nop
9d00274c:	0f4018d2 	jal	9d006348 <strlen>
9d002750:	02c02025 	move	a0,s6
9d002754:	8fa30028 	lw	v1,40(sp)
9d002758:	0043182a 	slt	v1,v0,v1
9d00275c:	1060ff2d 	beqz	v1,9d002414 <__fmt_fp+0x514>
9d002760:	02c21821 	addu	v1,s6,v0
9d002764:	8fa60018 	lw	a2,24(sp)
9d002768:	8fa4002c 	lw	a0,44(sp)
9d00276c:	0f401892 	jal	9d006248 <memset>
9d002770:	24050030 	li	a1,48
9d002774:	afa00024 	sw	zero,36(sp)
9d002778:	1000fe2e 	b	9d002034 <__fmt_fp+0x134>
9d00277c:	02c02025 	move	a0,s6
9d002780:	1000fe6d 	b	9d002138 <__fmt_fp+0x238>
9d002784:	24100006 	li	s0,6
9d002788:	8fa30030 	lw	v1,48(sp)
9d00278c:	1062fe6a 	beq	v1,v0,9d002138 <__fmt_fp+0x238>
9d002790:	24100006 	li	s0,6
9d002794:	1000ff29 	b	9d00243c <__fmt_fp+0x53c>
9d002798:	0060f025 	move	s8,v1

Disassembly of section .text.fma:

9d00279c <fma>:
9d00279c:	27bdff80 	addiu	sp,sp,-128
9d0027a0:	afa40080 	sw	a0,128(sp)
9d0027a4:	afa60088 	sw	a2,136(sp)
9d0027a8:	afa7008c 	sw	a3,140(sp)
9d0027ac:	00803025 	move	a2,a0
9d0027b0:	00a03825 	move	a3,a1
9d0027b4:	27a40030 	addiu	a0,sp,48
9d0027b8:	afbf007c 	sw	ra,124(sp)
9d0027bc:	afa50084 	sw	a1,132(sp)
9d0027c0:	afbe0078 	sw	s8,120(sp)
9d0027c4:	afb40068 	sw	s4,104(sp)
9d0027c8:	afb30064 	sw	s3,100(sp)
9d0027cc:	afb20060 	sw	s2,96(sp)
9d0027d0:	8fb30094 	lw	s3,148(sp)
9d0027d4:	8fb20090 	lw	s2,144(sp)
9d0027d8:	afb70074 	sw	s7,116(sp)
9d0027dc:	afb60070 	sw	s6,112(sp)
9d0027e0:	afb5006c 	sw	s5,108(sp)
9d0027e4:	afb1005c 	sw	s1,92(sp)
9d0027e8:	0f4016a7 	jal	9d005a9c <normalize>
9d0027ec:	afb00058 	sw	s0,88(sp)
9d0027f0:	8fa60088 	lw	a2,136(sp)
9d0027f4:	8fa7008c 	lw	a3,140(sp)
9d0027f8:	8fbe0038 	lw	s8,56(sp)
9d0027fc:	0f4016a7 	jal	9d005a9c <normalize>
9d002800:	27a40020 	addiu	a0,sp,32
9d002804:	02403025 	move	a2,s2
9d002808:	02603825 	move	a3,s3
9d00280c:	27a40010 	addiu	a0,sp,16
9d002810:	0f4016a7 	jal	9d005a9c <normalize>
9d002814:	8fb40028 	lw	s4,40(sp)
9d002818:	2bc203cb 	slti	v0,s8,971
9d00281c:	10400003 	beqz	v0,9d00282c <fma+0x90>
9d002820:	2a8203cb 	slti	v0,s4,971
9d002824:	1440000e 	bnez	v0,9d002860 <fma+0xc4>
9d002828:	8fa60018 	lw	a2,24(sp)
9d00282c:	8fa60088 	lw	a2,136(sp)
9d002830:	8fa7008c 	lw	a3,140(sp)
9d002834:	8fa40080 	lw	a0,128(sp)
9d002838:	0f401087 	jal	9d00421c <__muldf3>
9d00283c:	8fa50084 	lw	a1,132(sp)
9d002840:	00403025 	move	a2,v0
9d002844:	00603825 	move	a3,v1
9d002848:	02402025 	move	a0,s2
9d00284c:	0f400f7d 	jal	9d003df4 <__adddf3>
9d002850:	02602825 	move	a1,s3
9d002854:	00409025 	move	s2,v0
9d002858:	10000006 	b	9d002874 <fma+0xd8>
9d00285c:	00609825 	move	s3,v1
9d002860:	28c203cb 	slti	v0,a2,971
9d002864:	14400011 	bnez	v0,9d0028ac <fma+0x110>
9d002868:	240203cb 	li	v0,971
9d00286c:	14c2fff0 	bne	a2,v0,9d002830 <fma+0x94>
9d002870:	8fa60088 	lw	a2,136(sp)
9d002874:	8fbf007c 	lw	ra,124(sp)
9d002878:	02401025 	move	v0,s2
9d00287c:	02601825 	move	v1,s3
9d002880:	8fbe0078 	lw	s8,120(sp)
9d002884:	8fb70074 	lw	s7,116(sp)
9d002888:	8fb60070 	lw	s6,112(sp)
9d00288c:	8fb5006c 	lw	s5,108(sp)
9d002890:	8fb40068 	lw	s4,104(sp)
9d002894:	8fb30064 	lw	s3,100(sp)
9d002898:	8fb20060 	lw	s2,96(sp)
9d00289c:	8fb1005c 	lw	s1,92(sp)
9d0028a0:	8fb00058 	lw	s0,88(sp)
9d0028a4:	03e00008 	jr	ra
9d0028a8:	27bd0080 	addiu	sp,sp,128
9d0028ac:	8fa20030 	lw	v0,48(sp)
9d0028b0:	8fae0020 	lw	t6,32(sp)
9d0028b4:	8fa40024 	lw	a0,36(sp)
9d0028b8:	8fa70034 	lw	a3,52(sp)
9d0028bc:	004e0019 	multu	v0,t6
9d0028c0:	029ef021 	addu	s8,s4,s8
9d0028c4:	00dea023 	subu	s4,a2,s8
9d0028c8:	8fa80010 	lw	t0,16(sp)
9d0028cc:	8fb70014 	lw	s7,20(sp)
9d0028d0:	00005012 	mflo	t2
9d0028d4:	afaa0040 	sw	t2,64(sp)
9d0028d8:	8fad0040 	lw	t5,64(sp)
9d0028dc:	00005810 	mfhi	t3
9d0028e0:	afab0044 	sw	t3,68(sp)
9d0028e4:	00440019 	multu	v0,a0
9d0028e8:	00001012 	mflo	v0
9d0028ec:	00001810 	mfhi	v1
9d0028f0:	00ee0019 	multu	a3,t6
9d0028f4:	00007810 	mfhi	t7
9d0028f8:	006f5021 	addu	t2,v1,t7
9d0028fc:	00007012 	mflo	t6
9d002900:	004e2821 	addu	a1,v0,t6
9d002904:	00a2582b 	sltu	t3,a1,v0
9d002908:	00e40019 	multu	a3,a0
9d00290c:	8fa20044 	lw	v0,68(sp)
9d002910:	016a5821 	addu	t3,t3,t2
9d002914:	00a27821 	addu	t7,a1,v0
9d002918:	01e2382b 	sltu	a3,t7,v0
9d00291c:	00002012 	mflo	a0
9d002920:	008b5821 	addu	t3,a0,t3
9d002924:	0164502b 	sltu	t2,t3,a0
9d002928:	00002810 	mfhi	a1
9d00292c:	01673821 	addu	a3,t3,a3
9d002930:	01455021 	addu	t2,t2,a1
9d002934:	00eb182b 	sltu	v1,a3,t3
9d002938:	1a8000ae 	blez	s4,9d002bf4 <fma+0x458>
9d00293c:	006ab021 	addu	s6,v1,t2
9d002940:	2a820040 	slti	v0,s4,64
9d002944:	5040007f 	beqzl	v0,9d002b44 <fma+0x3a8>
9d002948:	2694ffc0 	addiu	s4,s4,-64
9d00294c:	01002025 	move	a0,t0
9d002950:	02e02825 	move	a1,s7
9d002954:	02803025 	move	a2,s4
9d002958:	afa70054 	sw	a3,84(sp)
9d00295c:	afaf0050 	sw	t7,80(sp)
9d002960:	afad004c 	sw	t5,76(sp)
9d002964:	0f40185a 	jal	9d006168 <__ashldi3>
9d002968:	afa80048 	sw	t0,72(sp)
9d00296c:	8fa80048 	lw	t0,72(sp)
9d002970:	24060040 	li	a2,64
9d002974:	02e02825 	move	a1,s7
9d002978:	01002025 	move	a0,t0
9d00297c:	00d43023 	subu	a2,a2,s4
9d002980:	00408025 	move	s0,v0
9d002984:	0f40184b 	jal	9d00612c <__lshrdi3>
9d002988:	afa30040 	sw	v1,64(sp)
9d00298c:	8fb90040 	lw	t9,64(sp)
9d002990:	8fad004c 	lw	t5,76(sp)
9d002994:	8faf0050 	lw	t7,80(sp)
9d002998:	8fa70054 	lw	a3,84(sp)
9d00299c:	00404025 	move	t0,v0
9d0029a0:	0060b825 	move	s7,v1
9d0029a4:	8fa2002c 	lw	v0,44(sp)
9d0029a8:	8fb1003c 	lw	s1,60(sp)
9d0029ac:	02228826 	xor	s1,s1,v0
9d0029b0:	8fa2001c 	lw	v0,28(sp)
9d0029b4:	145100ba 	bne	v0,s1,9d002ca0 <fma+0x504>
9d0029b8:	01b07023 	subu	t6,t5,s0
9d0029bc:	020d7021 	addu	t6,s0,t5
9d0029c0:	01d0582b 	sltu	t3,t6,s0
9d0029c4:	032f7821 	addu	t7,t9,t7
9d0029c8:	016fa021 	addu	s4,t3,t7
9d0029cc:	0299102b 	sltu	v0,s4,t9
9d0029d0:	01c0a825 	move	s5,t6
9d0029d4:	14400007 	bnez	v0,9d0029f4 <fma+0x258>
9d0029d8:	24040001 	li	a0,1
9d0029dc:	57340005 	bnel	t9,s4,9d0029f4 <fma+0x258>
9d0029e0:	00002025 	move	a0,zero
9d0029e4:	01d0802b 	sltu	s0,t6,s0
9d0029e8:	16000003 	bnez	s0,9d0029f8 <fma+0x25c>
9d0029ec:	01074821 	addu	t1,t0,a3
9d0029f0:	00002025 	move	a0,zero
9d0029f4:	01074821 	addu	t1,t0,a3
9d0029f8:	0128c02b 	sltu	t8,t1,t0
9d0029fc:	02f61821 	addu	v1,s7,s6
9d002a00:	00894821 	addu	t1,a0,t1
9d002a04:	0303c021 	addu	t8,t8,v1
9d002a08:	0124202b 	sltu	a0,t1,a0
9d002a0c:	0098c021 	addu	t8,a0,t8
9d002a10:	01202025 	move	a0,t1
9d002a14:	03002825 	move	a1,t8
9d002a18:	afa90048 	sw	t1,72(sp)
9d002a1c:	0f401758 	jal	9d005d60 <a_clz_64>
9d002a20:	afb80040 	sw	t8,64(sp)
9d002a24:	2453ffff 	addiu	s3,v0,-1
9d002a28:	24060040 	li	a2,64
9d002a2c:	00d33023 	subu	a2,a2,s3
9d002a30:	02a02025 	move	a0,s5
9d002a34:	0f40184b 	jal	9d00612c <__lshrdi3>
9d002a38:	02802825 	move	a1,s4
9d002a3c:	8fa90048 	lw	t1,72(sp)
9d002a40:	8fb80040 	lw	t8,64(sp)
9d002a44:	02603025 	move	a2,s3
9d002a48:	01202025 	move	a0,t1
9d002a4c:	03002825 	move	a1,t8
9d002a50:	00408025 	move	s0,v0
9d002a54:	0f40185a 	jal	9d006168 <__ashldi3>
9d002a58:	00609025 	move	s2,v1
9d002a5c:	02603025 	move	a2,s3
9d002a60:	02a02025 	move	a0,s5
9d002a64:	02802825 	move	a1,s4
9d002a68:	02028025 	or	s0,s0,v0
9d002a6c:	0f40185a 	jal	9d006168 <__ashldi3>
9d002a70:	02439025 	or	s2,s2,v1
9d002a74:	00431025 	or	v0,v0,v1
9d002a78:	0002102b 	sltu	v0,zero,v0
9d002a7c:	27de0040 	addiu	s8,s8,64
9d002a80:	02028025 	or	s0,s0,v0
9d002a84:	03d3f023 	subu	s8,s8,s3
9d002a88:	02002025 	move	a0,s0
9d002a8c:	12200005 	beqz	s1,9d002aa4 <fma+0x308>
9d002a90:	02402825 	move	a1,s2
9d002a94:	00102023 	negu	a0,s0
9d002a98:	0004102b 	sltu	v0,zero,a0
9d002a9c:	00122823 	negu	a1,s2
9d002aa0:	00a22823 	subu	a1,a1,v0
9d002aa4:	0f401327 	jal	9d004c9c <__floatdidf>
9d002aa8:	00000000 	nop
9d002aac:	0040b025 	move	s6,v0
9d002ab0:	2bc2fbc4 	slti	v0,s8,-1084
9d002ab4:	104000fb 	beqz	v0,9d002ea4 <fma+0x708>
9d002ab8:	0060b825 	move	s7,v1
9d002abc:	2402fbc3 	li	v0,-1085
9d002ac0:	17c200fe 	bne	s8,v0,9d002ebc <fma+0x720>
9d002ac4:	00102580 	sll	a0,s0,0x16
9d002ac8:	122000b8 	beqz	s1,9d002dac <fma+0x610>
9d002acc:	3c029d00 	lui	v0,0x9d00
9d002ad0:	3c029d00 	lui	v0,0x9d00
9d002ad4:	8c541ed8 	lw	s4,7896(v0)
9d002ad8:	8c551edc 	lw	s5,7900(v0)
9d002adc:	02c03025 	move	a2,s6
9d002ae0:	02e03825 	move	a3,s7
9d002ae4:	02802025 	move	a0,s4
9d002ae8:	0f401475 	jal	9d0051d4 <__eqdf2>
9d002aec:	02a02825 	move	a1,s5
9d002af0:	144000b1 	bnez	v0,9d002db8 <fma+0x61c>
9d002af4:	00101540 	sll	v0,s0,0x15
9d002af8:	3c029d00 	lui	v0,0x9d00
9d002afc:	8c461ee0 	lw	a2,7904(v0)
9d002b00:	8c471ee4 	lw	a3,7908(v0)
9d002b04:	02c02025 	move	a0,s6
9d002b08:	0f401087 	jal	9d00421c <__muldf3>
9d002b0c:	02e02825 	move	a1,s7
9d002b10:	00602825 	move	a1,v1
9d002b14:	0f40158e 	jal	9d005638 <__truncdfsf2>
9d002b18:	00402025 	move	a0,v0
9d002b1c:	0f40167c 	jal	9d0059f0 <__extendsfdf2>
9d002b20:	00402025 	move	a0,v0
9d002b24:	3c049d00 	lui	a0,0x9d00
9d002b28:	8c861ee8 	lw	a2,7912(a0)
9d002b2c:	8c871eec 	lw	a3,7916(a0)
9d002b30:	00602825 	move	a1,v1
9d002b34:	0f401087 	jal	9d00421c <__muldf3>
9d002b38:	00402025 	move	a0,v0
9d002b3c:	1000ff46 	b	9d002858 <fma+0xbc>
9d002b40:	00409025 	move	s2,v0
9d002b44:	1280004d 	beqz	s4,9d002c7c <fma+0x4e0>
9d002b48:	24deffc0 	addiu	s8,a2,-64
9d002b4c:	2a820040 	slti	v0,s4,64
9d002b50:	10400046 	beqz	v0,9d002c6c <fma+0x4d0>
9d002b54:	afa7004c 	sw	a3,76(sp)
9d002b58:	240d0040 	li	t5,64
9d002b5c:	8fa40040 	lw	a0,64(sp)
9d002b60:	01b4a823 	subu	s5,t5,s4
9d002b64:	01e02825 	move	a1,t7
9d002b68:	02a03025 	move	a2,s5
9d002b6c:	afa80050 	sw	t0,80(sp)
9d002b70:	0f40185a 	jal	9d006168 <__ashldi3>
9d002b74:	afaf0048 	sw	t7,72(sp)
9d002b78:	8faf0048 	lw	t7,72(sp)
9d002b7c:	8fa40040 	lw	a0,64(sp)
9d002b80:	02803025 	move	a2,s4
9d002b84:	01e02825 	move	a1,t7
9d002b88:	0f40184b 	jal	9d00612c <__lshrdi3>
9d002b8c:	00438825 	or	s1,v0,v1
9d002b90:	8fa7004c 	lw	a3,76(sp)
9d002b94:	02c02825 	move	a1,s6
9d002b98:	02a03025 	move	a2,s5
9d002b9c:	00e02025 	move	a0,a3
9d002ba0:	0011882b 	sltu	s1,zero,s1
9d002ba4:	00608025 	move	s0,v1
9d002ba8:	0f40185a 	jal	9d006168 <__ashldi3>
9d002bac:	02228825 	or	s1,s1,v0
9d002bb0:	8fa7004c 	lw	a3,76(sp)
9d002bb4:	02037825 	or	t7,s0,v1
9d002bb8:	02226825 	or	t5,s1,v0
9d002bbc:	00e02025 	move	a0,a3
9d002bc0:	02c02825 	move	a1,s6
9d002bc4:	02803025 	move	a2,s4
9d002bc8:	afad0048 	sw	t5,72(sp)
9d002bcc:	0f40184b 	jal	9d00612c <__lshrdi3>
9d002bd0:	afaf0040 	sw	t7,64(sp)
9d002bd4:	00403825 	move	a3,v0
9d002bd8:	0060b025 	move	s6,v1
9d002bdc:	00008025 	move	s0,zero
9d002be0:	0000c825 	move	t9,zero
9d002be4:	8faf0040 	lw	t7,64(sp)
9d002be8:	8fad0048 	lw	t5,72(sp)
9d002bec:	1000ff6d 	b	9d0029a4 <fma+0x208>
9d002bf0:	8fa80050 	lw	t0,80(sp)
9d002bf4:	03c68823 	subu	s1,s8,a2
9d002bf8:	12200023 	beqz	s1,9d002c88 <fma+0x4ec>
9d002bfc:	01008025 	move	s0,t0
9d002c00:	2a220040 	slti	v0,s1,64
9d002c04:	50400024 	beqzl	v0,9d002c98 <fma+0x4fc>
9d002c08:	24100001 	li	s0,1
9d002c0c:	24060040 	li	a2,64
9d002c10:	01002025 	move	a0,t0
9d002c14:	02e02825 	move	a1,s7
9d002c18:	00d13023 	subu	a2,a2,s1
9d002c1c:	afa70050 	sw	a3,80(sp)
9d002c20:	afaf004c 	sw	t7,76(sp)
9d002c24:	afad0048 	sw	t5,72(sp)
9d002c28:	0f40185a 	jal	9d006168 <__ashldi3>
9d002c2c:	afa80040 	sw	t0,64(sp)
9d002c30:	8fa80040 	lw	t0,64(sp)
9d002c34:	00438025 	or	s0,v0,v1
9d002c38:	02e02825 	move	a1,s7
9d002c3c:	01002025 	move	a0,t0
9d002c40:	0f40184b 	jal	9d00612c <__lshrdi3>
9d002c44:	02203025 	move	a2,s1
9d002c48:	0010802b 	sltu	s0,zero,s0
9d002c4c:	02028025 	or	s0,s0,v0
9d002c50:	0060c825 	move	t9,v1
9d002c54:	00004025 	move	t0,zero
9d002c58:	0000b825 	move	s7,zero
9d002c5c:	8fad0048 	lw	t5,72(sp)
9d002c60:	8faf004c 	lw	t7,76(sp)
9d002c64:	1000ff4f 	b	9d0029a4 <fma+0x208>
9d002c68:	8fa70050 	lw	a3,80(sp)
9d002c6c:	240d0001 	li	t5,1
9d002c70:	00007825 	move	t7,zero
9d002c74:	00003825 	move	a3,zero
9d002c78:	0000b025 	move	s6,zero
9d002c7c:	00008025 	move	s0,zero
9d002c80:	1000ff48 	b	9d0029a4 <fma+0x208>
9d002c84:	0000c825 	move	t9,zero
9d002c88:	02e0c825 	move	t9,s7
9d002c8c:	00004025 	move	t0,zero
9d002c90:	1000ff44 	b	9d0029a4 <fma+0x208>
9d002c94:	0000b825 	move	s7,zero
9d002c98:	1000fffc 	b	9d002c8c <fma+0x4f0>
9d002c9c:	0000c825 	move	t9,zero
9d002ca0:	01ae182b 	sltu	v1,t5,t6
9d002ca4:	01f95823 	subu	t3,t7,t9
9d002ca8:	0163a023 	subu	s4,t3,v1
9d002cac:	01f4102b 	sltu	v0,t7,s4
9d002cb0:	01c0a825 	move	s5,t6
9d002cb4:	24060001 	li	a2,1
9d002cb8:	14400007 	bnez	v0,9d002cd8 <fma+0x53c>
9d002cbc:	00002025 	move	a0,zero
9d002cc0:	568f0005 	bnel	s4,t7,9d002cd8 <fma+0x53c>
9d002cc4:	00003025 	move	a2,zero
9d002cc8:	14600004 	bnez	v1,9d002cdc <fma+0x540>
9d002ccc:	00e81823 	subu	v1,a3,t0
9d002cd0:	00003025 	move	a2,zero
9d002cd4:	00002025 	move	a0,zero
9d002cd8:	00e81823 	subu	v1,a3,t0
9d002cdc:	00e3102b 	sltu	v0,a3,v1
9d002ce0:	02d7c023 	subu	t8,s6,s7
9d002ce4:	0302c023 	subu	t8,t8,v0
9d002ce8:	00664823 	subu	t1,v1,a2
9d002cec:	0069182b 	sltu	v1,v1,t1
9d002cf0:	0304c023 	subu	t8,t8,a0
9d002cf4:	0303c023 	subu	t8,t8,v1
9d002cf8:	07010015 	bgez	t8,9d002d50 <fma+0x5b4>
9d002cfc:	01381025 	or	v0,t1,t8
9d002d00:	020d7023 	subu	t6,s0,t5
9d002d04:	020e802b 	sltu	s0,s0,t6
9d002d08:	032f5823 	subu	t3,t9,t7
9d002d0c:	01073823 	subu	a3,t0,a3
9d002d10:	0170a023 	subu	s4,t3,s0
9d002d14:	0107102b 	sltu	v0,t0,a3
9d002d18:	02f61823 	subu	v1,s7,s6
9d002d1c:	01d44825 	or	t1,t6,s4
9d002d20:	00e63021 	addu	a2,a3,a2
9d002d24:	00621823 	subu	v1,v1,v0
9d002d28:	0009482b 	sltu	t1,zero,t1
9d002d2c:	00c7382b 	sltu	a3,a2,a3
9d002d30:	00641021 	addu	v0,v1,a0
9d002d34:	00c94823 	subu	t1,a2,t1
9d002d38:	00e21021 	addu	v0,a3,v0
9d002d3c:	00c9302b 	sltu	a2,a2,t1
9d002d40:	01c0a825 	move	s5,t6
9d002d44:	0046c023 	subu	t8,v0,a2
9d002d48:	2e310001 	sltiu	s1,s1,1
9d002d4c:	01381025 	or	v0,t1,t8
9d002d50:	1440ff30 	bnez	v0,9d002a14 <fma+0x278>
9d002d54:	01202025 	move	a0,t1
9d002d58:	02b41025 	or	v0,s5,s4
9d002d5c:	1040feb3 	beqz	v0,9d00282c <fma+0x90>
9d002d60:	02a02025 	move	a0,s5
9d002d64:	0f401758 	jal	9d005d60 <a_clz_64>
9d002d68:	02802825 	move	a1,s4
9d002d6c:	2453ffff 	addiu	s3,v0,-1
9d002d70:	06610008 	bgez	s3,9d002d94 <fma+0x5f8>
9d002d74:	02603025 	move	a2,s3
9d002d78:	001417c0 	sll	v0,s4,0x1f
9d002d7c:	00158042 	srl	s0,s5,0x1
9d002d80:	00508025 	or	s0,v0,s0
9d002d84:	32ae0001 	andi	t6,s5,0x1
9d002d88:	020e8025 	or	s0,s0,t6
9d002d8c:	1000ff3d 	b	9d002a84 <fma+0x2e8>
9d002d90:	00149042 	srl	s2,s4,0x1
9d002d94:	02a02025 	move	a0,s5
9d002d98:	0f40185a 	jal	9d006168 <__ashldi3>
9d002d9c:	02802825 	move	a1,s4
9d002da0:	00408025 	move	s0,v0
9d002da4:	1000ff37 	b	9d002a84 <fma+0x2e8>
9d002da8:	00609025 	move	s2,v1
9d002dac:	8c541ed0 	lw	s4,7888(v0)
9d002db0:	1000ff4a 	b	9d002adc <fma+0x340>
9d002db4:	8c551ed4 	lw	s5,7892(v0)
9d002db8:	1040003b 	beqz	v0,9d002ea8 <fma+0x70c>
9d002dbc:	03c03025 	move	a2,s8
9d002dc0:	001217c0 	sll	v0,s2,0x1f
9d002dc4:	00102042 	srl	a0,s0,0x1
9d002dc8:	00442025 	or	a0,v0,a0
9d002dcc:	00122842 	srl	a1,s2,0x1
9d002dd0:	32100001 	andi	s0,s0,0x1
9d002dd4:	3c024000 	lui	v0,0x4000
9d002dd8:	00902025 	or	a0,a0,s0
9d002ddc:	12200005 	beqz	s1,9d002df4 <fma+0x658>
9d002de0:	00452825 	or	a1,v0,a1
9d002de4:	00042023 	negu	a0,a0
9d002de8:	0004102b 	sltu	v0,zero,a0
9d002dec:	00052823 	negu	a1,a1
9d002df0:	00a22823 	subu	a1,a1,v0
9d002df4:	0f401327 	jal	9d004c9c <__floatdidf>
9d002df8:	00000000 	nop
9d002dfc:	00403025 	move	a2,v0
9d002e00:	00603825 	move	a3,v1
9d002e04:	00402025 	move	a0,v0
9d002e08:	0f400f7d 	jal	9d003df4 <__adddf3>
9d002e0c:	00602825 	move	a1,v1
9d002e10:	00402025 	move	a0,v0
9d002e14:	02803025 	move	a2,s4
9d002e18:	02a03825 	move	a3,s5
9d002e1c:	0f400f7b 	jal	9d003dec <__subdf3>
9d002e20:	00602825 	move	a1,v1
9d002e24:	00408025 	move	s0,v0
9d002e28:	3c029d00 	lui	v0,0x9d00
9d002e2c:	8c461ee8 	lw	a2,7912(v0)
9d002e30:	8c471eec 	lw	a3,7916(v0)
9d002e34:	02002025 	move	a0,s0
9d002e38:	00602825 	move	a1,v1
9d002e3c:	0f401087 	jal	9d00421c <__muldf3>
9d002e40:	00608825 	move	s1,v1
9d002e44:	00403025 	move	a2,v0
9d002e48:	00603825 	move	a3,v1
9d002e4c:	00402025 	move	a0,v0
9d002e50:	0f401087 	jal	9d00421c <__muldf3>
9d002e54:	00602825 	move	a1,v1
9d002e58:	02003025 	move	a2,s0
9d002e5c:	02203825 	move	a3,s1
9d002e60:	02002025 	move	a0,s0
9d002e64:	02202825 	move	a1,s1
9d002e68:	00409025 	move	s2,v0
9d002e6c:	0f400f7b 	jal	9d003dec <__subdf3>
9d002e70:	00609825 	move	s3,v1
9d002e74:	00403025 	move	a2,v0
9d002e78:	00603825 	move	a3,v1
9d002e7c:	02402025 	move	a0,s2
9d002e80:	0f401087 	jal	9d00421c <__muldf3>
9d002e84:	02602825 	move	a1,s3
9d002e88:	00402025 	move	a0,v0
9d002e8c:	02003025 	move	a2,s0
9d002e90:	02203825 	move	a3,s1
9d002e94:	0f400f7d 	jal	9d003df4 <__adddf3>
9d002e98:	00602825 	move	a1,v1
9d002e9c:	0040b025 	move	s6,v0
9d002ea0:	0060b825 	move	s7,v1
9d002ea4:	03c03025 	move	a2,s8
9d002ea8:	02c02025 	move	a0,s6
9d002eac:	0f4015ce 	jal	9d005738 <scalbn>
9d002eb0:	02e02825 	move	a1,s7
9d002eb4:	1000fe68 	b	9d002858 <fma+0xbc>
9d002eb8:	00409025 	move	s2,v0
9d002ebc:	00121580 	sll	v0,s2,0x16
9d002ec0:	00108282 	srl	s0,s0,0xa
9d002ec4:	00508025 	or	s0,v0,s0
9d002ec8:	0004202b 	sltu	a0,zero,a0
9d002ecc:	00902025 	or	a0,a0,s0
9d002ed0:	02402825 	move	a1,s2
9d002ed4:	00041582 	srl	v0,a0,0x16
9d002ed8:	7c054804 	ins	a1,zero,0x0,0xa
9d002edc:	00452825 	or	a1,v0,a1
9d002ee0:	12200005 	beqz	s1,9d002ef8 <fma+0x75c>
9d002ee4:	00042280 	sll	a0,a0,0xa
9d002ee8:	00042023 	negu	a0,a0
9d002eec:	0004102b 	sltu	v0,zero,a0
9d002ef0:	00052823 	negu	a1,a1
9d002ef4:	00a22823 	subu	a1,a1,v0
9d002ef8:	0f401327 	jal	9d004c9c <__floatdidf>
9d002efc:	00000000 	nop
9d002f00:	1000ffe7 	b	9d002ea0 <fma+0x704>
9d002f04:	0040b025 	move	s6,v0

Disassembly of section .text.__printf_core:

9d002f08 <__printf_core>:
9d002f08:	27bdff18 	addiu	sp,sp,-232
9d002f0c:	afb500d8 	sw	s5,216(sp)
9d002f10:	3c159d00 	lui	s5,0x9d00
9d002f14:	afb600dc 	sw	s6,220(sp)
9d002f18:	afb400d4 	sw	s4,212(sp)
9d002f1c:	afb300d0 	sw	s3,208(sp)
9d002f20:	afb200cc 	sw	s2,204(sp)
9d002f24:	afb100c8 	sw	s1,200(sp)
9d002f28:	afbf00e4 	sw	ra,228(sp)
9d002f2c:	afb700e0 	sw	s7,224(sp)
9d002f30:	afb000c4 	sw	s0,196(sp)
9d002f34:	00809025 	move	s2,a0
9d002f38:	00c08825 	move	s1,a2
9d002f3c:	afa500b0 	sw	a1,176(sp)
9d002f40:	00009825 	move	s3,zero
9d002f44:	27b60010 	addiu	s6,sp,16
9d002f48:	24140025 	li	s4,37
9d002f4c:	26b51ec8 	addiu	s5,s5,7880
9d002f50:	8fa500b0 	lw	a1,176(sp)
9d002f54:	80a20000 	lb	v0,0(a1)
9d002f58:	104000e5 	beqz	v0,9d0032f0 <__printf_core+0x3e8>
9d002f5c:	2402ffff 	li	v0,-1
9d002f60:	afa20094 	sw	v0,148(sp)
9d002f64:	24020080 	li	v0,128
9d002f68:	afa00090 	sw	zero,144(sp)
9d002f6c:	afa00098 	sw	zero,152(sp)
9d002f70:	afb6009c 	sw	s6,156(sp)
9d002f74:	afa200a0 	sw	v0,160(sp)
9d002f78:	00008025 	move	s0,zero
9d002f7c:	00b01021 	addu	v0,a1,s0
9d002f80:	80420000 	lb	v0,0(v0)
9d002f84:	10400003 	beqz	v0,9d002f94 <__printf_core+0x8c>
9d002f88:	00000000 	nop
9d002f8c:	5454fffb 	bnel	v0,s4,9d002f7c <__printf_core+0x74>
9d002f90:	26100001 	addiu	s0,s0,1
9d002f94:	12000008 	beqz	s0,9d002fb8 <__printf_core+0xb0>
9d002f98:	8fb700b0 	lw	s7,176(sp)
9d002f9c:	02003025 	move	a2,s0
9d002fa0:	0f40178c 	jal	9d005e30 <__out>
9d002fa4:	02402025 	move	a0,s2
9d002fa8:	8fa200b0 	lw	v0,176(sp)
9d002fac:	00501021 	addu	v0,v0,s0
9d002fb0:	afa200b0 	sw	v0,176(sp)
9d002fb4:	8fb700b0 	lw	s7,176(sp)
9d002fb8:	82e20000 	lb	v0,0(s7)
9d002fbc:	545400c5 	bnel	v0,s4,9d0032d4 <__printf_core+0x3cc>
9d002fc0:	02708021 	addu	s0,s3,s0
9d002fc4:	26f70001 	addiu	s7,s7,1
9d002fc8:	afb700b0 	sw	s7,176(sp)
9d002fcc:	2405002b 	li	a1,43
9d002fd0:	2406002d 	li	a2,45
9d002fd4:	24030030 	li	v1,48
9d002fd8:	24070020 	li	a3,32
9d002fdc:	24080023 	li	t0,35
9d002fe0:	8fa400b0 	lw	a0,176(sp)
9d002fe4:	80820000 	lb	v0,0(a0)
9d002fe8:	5045001b 	beql	v0,a1,9d003058 <__printf_core+0x150>
9d002fec:	8fa20090 	lw	v0,144(sp)
9d002ff0:	2849002c 	slti	t1,v0,44
9d002ff4:	1120001e 	beqz	t1,9d003070 <__printf_core+0x168>
9d002ff8:	00000000 	nop
9d002ffc:	50470018 	beql	v0,a3,9d003060 <__printf_core+0x158>
9d003000:	8fa20090 	lw	v0,144(sp)
9d003004:	50480018 	beql	v0,t0,9d003068 <__printf_core+0x160>
9d003008:	8fa20090 	lw	v0,144(sp)
9d00300c:	2403002a 	li	v1,42
9d003010:	5043001e 	beql	v0,v1,9d00308c <__printf_core+0x184>
9d003014:	8e220000 	lw	v0,0(s1)
9d003018:	0f401718 	jal	9d005c60 <atoi>
9d00301c:	00000000 	nop
9d003020:	afa20098 	sw	v0,152(sp)
9d003024:	8fa300b0 	lw	v1,176(sp)
9d003028:	80620000 	lb	v0,0(v1)
9d00302c:	2442ffd0 	addiu	v0,v0,-48
9d003030:	2c42000a 	sltiu	v0,v0,10
9d003034:	10400021 	beqz	v0,9d0030bc <__printf_core+0x1b4>
9d003038:	24630001 	addiu	v1,v1,1
9d00303c:	1000fff9 	b	9d003024 <__printf_core+0x11c>
9d003040:	afa300b0 	sw	v1,176(sp)
9d003044:	34420001 	ori	v0,v0,0x1
9d003048:	24840001 	addiu	a0,a0,1
9d00304c:	afa20090 	sw	v0,144(sp)
9d003050:	1000ffe3 	b	9d002fe0 <__printf_core+0xd8>
9d003054:	afa400b0 	sw	a0,176(sp)
9d003058:	1000fffb 	b	9d003048 <__printf_core+0x140>
9d00305c:	34420004 	ori	v0,v0,0x4
9d003060:	1000fff9 	b	9d003048 <__printf_core+0x140>
9d003064:	34420008 	ori	v0,v0,0x8
9d003068:	1000fff7 	b	9d003048 <__printf_core+0x140>
9d00306c:	34420010 	ori	v0,v0,0x10
9d003070:	5046fff4 	beql	v0,a2,9d003044 <__printf_core+0x13c>
9d003074:	8fa20090 	lw	v0,144(sp)
9d003078:	5443ffe5 	bnel	v0,v1,9d003010 <__printf_core+0x108>
9d00307c:	2403002a 	li	v1,42
9d003080:	8fa20090 	lw	v0,144(sp)
9d003084:	1000fff0 	b	9d003048 <__printf_core+0x140>
9d003088:	34420002 	ori	v0,v0,0x2
9d00308c:	24840001 	addiu	a0,a0,1
9d003090:	afa400b0 	sw	a0,176(sp)
9d003094:	24430004 	addiu	v1,v0,4
9d003098:	8c420000 	lw	v0,0(v0)
9d00309c:	ae230000 	sw	v1,0(s1)
9d0030a0:	04410006 	bgez	v0,9d0030bc <__printf_core+0x1b4>
9d0030a4:	afa20098 	sw	v0,152(sp)
9d0030a8:	8fa30090 	lw	v1,144(sp)
9d0030ac:	00021023 	negu	v0,v0
9d0030b0:	afa20098 	sw	v0,152(sp)
9d0030b4:	38630001 	xori	v1,v1,0x1
9d0030b8:	afa30090 	sw	v1,144(sp)
9d0030bc:	8fa20090 	lw	v0,144(sp)
9d0030c0:	30430001 	andi	v1,v0,0x1
9d0030c4:	50600004 	beqzl	v1,9d0030d8 <__printf_core+0x1d0>
9d0030c8:	8fa200b0 	lw	v0,176(sp)
9d0030cc:	7c020844 	ins	v0,zero,0x1,0x1
9d0030d0:	afa20090 	sw	v0,144(sp)
9d0030d4:	8fa200b0 	lw	v0,176(sp)
9d0030d8:	2403002e 	li	v1,46
9d0030dc:	80440000 	lb	a0,0(v0)
9d0030e0:	1483000d 	bne	a0,v1,9d003118 <__printf_core+0x210>
9d0030e4:	24440001 	addiu	a0,v0,1
9d0030e8:	afa00094 	sw	zero,148(sp)
9d0030ec:	afa400b0 	sw	a0,176(sp)
9d0030f0:	80450001 	lb	a1,1(v0)
9d0030f4:	2403002a 	li	v1,42
9d0030f8:	14a30024 	bne	a1,v1,9d00318c <__printf_core+0x284>
9d0030fc:	24420002 	addiu	v0,v0,2
9d003100:	afa200b0 	sw	v0,176(sp)
9d003104:	8e220000 	lw	v0,0(s1)
9d003108:	24430004 	addiu	v1,v0,4
9d00310c:	8c420000 	lw	v0,0(v0)
9d003110:	ae230000 	sw	v1,0(s1)
9d003114:	afa20094 	sw	v0,148(sp)
9d003118:	0f4017a3 	jal	9d005e8c <__fmt_state>
9d00311c:	27a400b0 	addiu	a0,sp,176
9d003120:	afa200b8 	sw	v0,184(sp)
9d003124:	8fa200b0 	lw	v0,176(sp)
9d003128:	0f4018b2 	jal	9d0062c8 <tolower>
9d00312c:	80440000 	lb	a0,0(v0)
9d003130:	24030069 	li	v1,105
9d003134:	1043007a 	beq	v0,v1,9d003320 <__printf_core+0x418>
9d003138:	8fa500b8 	lw	a1,184(sp)
9d00313c:	2843006a 	slti	v1,v0,106
9d003140:	1060002f 	beqz	v1,9d003200 <__printf_core+0x2f8>
9d003144:	24030070 	li	v1,112
9d003148:	24030063 	li	v1,99
9d00314c:	104300bc 	beq	v0,v1,9d003440 <__printf_core+0x538>
9d003150:	28430064 	slti	v1,v0,100
9d003154:	10600018 	beqz	v1,9d0031b8 <__printf_core+0x2b0>
9d003158:	24030064 	li	v1,100
9d00315c:	105400c5 	beq	v0,s4,9d003474 <__printf_core+0x56c>
9d003160:	24030061 	li	v1,97
9d003164:	5043004e 	beql	v0,v1,9d0032a0 <__printf_core+0x398>
9d003168:	02203025 	move	a2,s1
9d00316c:	24020025 	li	v0,37
9d003170:	a3a200a8 	sb	v0,168(sp)
9d003174:	2402ffff 	li	v0,-1
9d003178:	afb700b0 	sw	s7,176(sp)
9d00317c:	afa00090 	sw	zero,144(sp)
9d003180:	afa00098 	sw	zero,152(sp)
9d003184:	100000b8 	b	9d003468 <__printf_core+0x560>
9d003188:	afa20094 	sw	v0,148(sp)
9d00318c:	0f401718 	jal	9d005c60 <atoi>
9d003190:	00000000 	nop
9d003194:	afa20094 	sw	v0,148(sp)
9d003198:	8fa300b0 	lw	v1,176(sp)
9d00319c:	80620000 	lb	v0,0(v1)
9d0031a0:	2442ffd0 	addiu	v0,v0,-48
9d0031a4:	2c42000a 	sltiu	v0,v0,10
9d0031a8:	1040ffdb 	beqz	v0,9d003118 <__printf_core+0x210>
9d0031ac:	24630001 	addiu	v1,v1,1
9d0031b0:	1000fff9 	b	9d003198 <__printf_core+0x290>
9d0031b4:	afa300b0 	sw	v1,176(sp)
9d0031b8:	10430059 	beq	v0,v1,9d003320 <__printf_core+0x418>
9d0031bc:	28420068 	slti	v0,v0,104
9d0031c0:	1040ffeb 	beqz	v0,9d003170 <__printf_core+0x268>
9d0031c4:	24020025 	li	v0,37
9d0031c8:	02203025 	move	a2,s1
9d0031cc:	0f4017cf 	jal	9d005f3c <__pop_float>
9d0031d0:	27a400a8 	addiu	a0,sp,168
9d0031d4:	10400097 	beqz	v0,9d003434 <__printf_core+0x52c>
9d0031d8:	8fa200b0 	lw	v0,176(sp)
9d0031dc:	27a600a8 	addiu	a2,sp,168
9d0031e0:	27a50090 	addiu	a1,sp,144
9d0031e4:	24430001 	addiu	v1,v0,1
9d0031e8:	afa300b0 	sw	v1,176(sp)
9d0031ec:	80470000 	lb	a3,0(v0)
9d0031f0:	0f4007c0 	jal	9d001f00 <__fmt_fp>
9d0031f4:	02402025 	move	a0,s2
9d0031f8:	10000035 	b	9d0032d0 <__printf_core+0x3c8>
9d0031fc:	02028021 	addu	s0,s0,v0
9d003200:	10430072 	beq	v0,v1,9d0033cc <__printf_core+0x4c4>
9d003204:	28430071 	slti	v1,v0,113
9d003208:	10600014 	beqz	v1,9d00325c <__printf_core+0x354>
9d00320c:	24030075 	li	v1,117
9d003210:	2403006e 	li	v1,110
9d003214:	10430082 	beq	v0,v1,9d003420 <__printf_core+0x518>
9d003218:	2403006f 	li	v1,111
9d00321c:	1443ffd4 	bne	v0,v1,9d003170 <__printf_core+0x268>
9d003220:	24020025 	li	v0,37
9d003224:	02203825 	move	a3,s1
9d003228:	00003025 	move	a2,zero
9d00322c:	0f401413 	jal	9d00504c <__pop_int>
9d003230:	27a400a8 	addiu	a0,sp,168
9d003234:	1040007f 	beqz	v0,9d003434 <__printf_core+0x52c>
9d003238:	8fa200b0 	lw	v0,176(sp)
9d00323c:	27a600a8 	addiu	a2,sp,168
9d003240:	27a50090 	addiu	a1,sp,144
9d003244:	24420001 	addiu	v0,v0,1
9d003248:	02402025 	move	a0,s2
9d00324c:	0f4018dc 	jal	9d006370 <__fmt_d>
9d003250:	afa200b0 	sw	v0,176(sp)
9d003254:	1000001e 	b	9d0032d0 <__printf_core+0x3c8>
9d003258:	02028021 	addu	s0,s0,v0
9d00325c:	1043003e 	beq	v0,v1,9d003358 <__printf_core+0x450>
9d003260:	24030078 	li	v1,120
9d003264:	1043004a 	beq	v0,v1,9d003390 <__printf_core+0x488>
9d003268:	24030073 	li	v1,115
9d00326c:	1443ffc0 	bne	v0,v1,9d003170 <__printf_core+0x268>
9d003270:	24020025 	li	v0,37
9d003274:	24020080 	li	v0,128
9d003278:	14a2006e 	bne	a1,v0,9d003434 <__printf_core+0x52c>
9d00327c:	8fa200b0 	lw	v0,176(sp)
9d003280:	00003825 	move	a3,zero
9d003284:	24420001 	addiu	v0,v0,1
9d003288:	afa200b0 	sw	v0,176(sp)
9d00328c:	8e220000 	lw	v0,0(s1)
9d003290:	24430004 	addiu	v1,v0,4
9d003294:	ae230000 	sw	v1,0(s1)
9d003298:	1000005c 	b	9d00340c <__printf_core+0x504>
9d00329c:	8c460000 	lw	a2,0(v0)
9d0032a0:	0f4017cf 	jal	9d005f3c <__pop_float>
9d0032a4:	27a400a8 	addiu	a0,sp,168
9d0032a8:	10400062 	beqz	v0,9d003434 <__printf_core+0x52c>
9d0032ac:	8fa200b0 	lw	v0,176(sp)
9d0032b0:	27a600a8 	addiu	a2,sp,168
9d0032b4:	27a50090 	addiu	a1,sp,144
9d0032b8:	24430001 	addiu	v1,v0,1
9d0032bc:	afa300b0 	sw	v1,176(sp)
9d0032c0:	80470000 	lb	a3,0(v0)
9d0032c4:	0f4018de 	jal	9d006378 <__fmt_a>
9d0032c8:	02402025 	move	a0,s2
9d0032cc:	02028021 	addu	s0,s0,v0
9d0032d0:	02708021 	addu	s0,s3,s0
9d0032d4:	0213982a 	slt	s3,s0,s3
9d0032d8:	1260ff1d 	beqz	s3,9d002f50 <__printf_core+0x48>
9d0032dc:	02009825 	move	s3,s0
9d0032e0:	3c02a000 	lui	v0,0xa000
9d0032e4:	2403004f 	li	v1,79
9d0032e8:	ac430004 	sw	v1,4(v0)
9d0032ec:	2413ffff 	li	s3,-1
9d0032f0:	8fbf00e4 	lw	ra,228(sp)
9d0032f4:	02601025 	move	v0,s3
9d0032f8:	8fb700e0 	lw	s7,224(sp)
9d0032fc:	8fb600dc 	lw	s6,220(sp)
9d003300:	8fb500d8 	lw	s5,216(sp)
9d003304:	8fb400d4 	lw	s4,212(sp)
9d003308:	8fb300d0 	lw	s3,208(sp)
9d00330c:	8fb200cc 	lw	s2,204(sp)
9d003310:	8fb100c8 	lw	s1,200(sp)
9d003314:	8fb000c4 	lw	s0,196(sp)
9d003318:	03e00008 	jr	ra
9d00331c:	27bd00e8 	addiu	sp,sp,232
9d003320:	02203825 	move	a3,s1
9d003324:	24060001 	li	a2,1
9d003328:	0f401413 	jal	9d00504c <__pop_int>
9d00332c:	27a400a8 	addiu	a0,sp,168
9d003330:	10400040 	beqz	v0,9d003434 <__printf_core+0x52c>
9d003334:	8fa200b0 	lw	v0,176(sp)
9d003338:	27a600a8 	addiu	a2,sp,168
9d00333c:	27a50090 	addiu	a1,sp,144
9d003340:	24420001 	addiu	v0,v0,1
9d003344:	02402025 	move	a0,s2
9d003348:	0f4018dc 	jal	9d006370 <__fmt_d>
9d00334c:	afa200b0 	sw	v0,176(sp)
9d003350:	1000ffdf 	b	9d0032d0 <__printf_core+0x3c8>
9d003354:	02028021 	addu	s0,s0,v0
9d003358:	02203825 	move	a3,s1
9d00335c:	00003025 	move	a2,zero
9d003360:	0f401413 	jal	9d00504c <__pop_int>
9d003364:	27a400a8 	addiu	a0,sp,168
9d003368:	10400032 	beqz	v0,9d003434 <__printf_core+0x52c>
9d00336c:	8fa200b0 	lw	v0,176(sp)
9d003370:	27a600a8 	addiu	a2,sp,168
9d003374:	27a50090 	addiu	a1,sp,144
9d003378:	24420001 	addiu	v0,v0,1
9d00337c:	02402025 	move	a0,s2
9d003380:	0f4018dc 	jal	9d006370 <__fmt_d>
9d003384:	afa200b0 	sw	v0,176(sp)
9d003388:	1000ffd1 	b	9d0032d0 <__printf_core+0x3c8>
9d00338c:	02028021 	addu	s0,s0,v0
9d003390:	02203825 	move	a3,s1
9d003394:	00003025 	move	a2,zero
9d003398:	0f401413 	jal	9d00504c <__pop_int>
9d00339c:	27a400a8 	addiu	a0,sp,168
9d0033a0:	10400024 	beqz	v0,9d003434 <__printf_core+0x52c>
9d0033a4:	8fa200b0 	lw	v0,176(sp)
9d0033a8:	24430001 	addiu	v1,v0,1
9d0033ac:	afa300b0 	sw	v1,176(sp)
9d0033b0:	80470000 	lb	a3,0(v0)
9d0033b4:	27a600a8 	addiu	a2,sp,168
9d0033b8:	27a50090 	addiu	a1,sp,144
9d0033bc:	0f4018de 	jal	9d006378 <__fmt_a>
9d0033c0:	02402025 	move	a0,s2
9d0033c4:	1000ffc2 	b	9d0032d0 <__printf_core+0x3c8>
9d0033c8:	02028021 	addu	s0,s0,v0
9d0033cc:	02203825 	move	a3,s1
9d0033d0:	00003025 	move	a2,zero
9d0033d4:	240500f0 	li	a1,240
9d0033d8:	0f401413 	jal	9d00504c <__pop_int>
9d0033dc:	27a400a8 	addiu	a0,sp,168
9d0033e0:	10400014 	beqz	v0,9d003434 <__printf_core+0x52c>
9d0033e4:	8fa200b0 	lw	v0,176(sp)
9d0033e8:	8fa300ac 	lw	v1,172(sp)
9d0033ec:	24420001 	addiu	v0,v0,1
9d0033f0:	afa200b0 	sw	v0,176(sp)
9d0033f4:	8fa200a8 	lw	v0,168(sp)
9d0033f8:	00431025 	or	v0,v0,v1
9d0033fc:	1440ffed 	bnez	v0,9d0033b4 <__printf_core+0x4ac>
9d003400:	24070078 	li	a3,120
9d003404:	00003825 	move	a3,zero
9d003408:	02a03025 	move	a2,s5
9d00340c:	27a50090 	addiu	a1,sp,144
9d003410:	0f4018e0 	jal	9d006380 <__fmt_s>
9d003414:	02402025 	move	a0,s2
9d003418:	1000ffad 	b	9d0032d0 <__printf_core+0x3c8>
9d00341c:	02028021 	addu	s0,s0,v0
9d003420:	02203825 	move	a3,s1
9d003424:	02703021 	addu	a2,s3,s0
9d003428:	0f40160c 	jal	9d005830 <__pop_ptr>
9d00342c:	27a400a8 	addiu	a0,sp,168
9d003430:	8fa200b0 	lw	v0,176(sp)
9d003434:	24420001 	addiu	v0,v0,1
9d003438:	1000ffa5 	b	9d0032d0 <__printf_core+0x3c8>
9d00343c:	afa200b0 	sw	v0,176(sp)
9d003440:	24020080 	li	v0,128
9d003444:	14a2fffb 	bne	a1,v0,9d003434 <__printf_core+0x52c>
9d003448:	8fa200b0 	lw	v0,176(sp)
9d00344c:	24420001 	addiu	v0,v0,1
9d003450:	afa200b0 	sw	v0,176(sp)
9d003454:	8e220000 	lw	v0,0(s1)
9d003458:	24430004 	addiu	v1,v0,4
9d00345c:	8c420000 	lw	v0,0(v0)
9d003460:	ae230000 	sw	v1,0(s1)
9d003464:	a3a200a8 	sb	v0,168(sp)
9d003468:	24070001 	li	a3,1
9d00346c:	1000ffe7 	b	9d00340c <__printf_core+0x504>
9d003470:	27a600a8 	addiu	a2,sp,168
9d003474:	24020080 	li	v0,128
9d003478:	14a2ffee 	bne	a1,v0,9d003434 <__printf_core+0x52c>
9d00347c:	8fa200b0 	lw	v0,176(sp)
9d003480:	a3b400a8 	sb	s4,168(sp)
9d003484:	24420001 	addiu	v0,v0,1
9d003488:	1000fff7 	b	9d003468 <__printf_core+0x560>
9d00348c:	afa200b0 	sw	v0,176(sp)

Disassembly of section .text.dp32mul:

9d003490 <__divdf3>:
9d003490:	00055040 000a5542 00054ac0 00047d42     @P..BU...J..B}..
9d0034a0:	012f4825 000442c0 3c0e8000 012e4825     %H/..B.....<%H..
9d0034b0:	00076840 000d6d42 000762c0 00067d42     @h..Bm...b..B}..
9d0034c0:	018f6025 00065ac0 018e6025 00a72826     %`...Z..%`..&(..
9d0034d0:	00ae2824 254fffff 2de107fe 102000cb     $(....O%...-.. .
9d0034e0:	00000000                                ....

9d0034e4 <Dlab1>:
9d0034e4:	25afffff 	addiu	t7,t5,-1
9d0034e8:	2de107fe 	sltiu	at,t7,2046
9d0034ec:	102000f4 	beqz	at,9d0038c0 <DspecB>
9d0034f0:	00000000 	nop

9d0034f4 <Dlab2>:
9d0034f4:	014d5023 	subu	t2,t2,t5
9d0034f8:	254a03ff 	addiu	t2,t2,1023
9d0034fc:	00084042 	srl	t0,t0,0x1
9d003500:	00097fc0 	sll	t7,t1,0x1f
9d003504:	010f4025 	or	t0,t0,t7
9d003508:	00094842 	srl	t1,t1,0x1
9d00350c:	000c3c02 	srl	a3,t4,0x10
9d003510:	00e001f4 	teq	a3,zero,0x7
9d003514:	0127001b 	divu	zero,t1,a3
9d003518:	00007012 	mflo	t6
9d00351c:	00004810 	mfhi	t1
9d003520:	3186ffff 	andi	a2,t4,0xffff
9d003524:	00ce0019 	multu	a2,t6
9d003528:	00002012 	mflo	a0
9d00352c:	00094c00 	sll	t1,t1,0x10
9d003530:	00087c02 	srl	t7,t0,0x10
9d003534:	012f4825 	or	t1,t1,t7
9d003538:	0124782b 	sltu	t7,t1,a0
9d00353c:	11e00006 	beqz	t7,9d003558 <i20>
9d003540:	01244823 	subu	t1,t1,a0

9d003544 <b21>:
9d003544:	25ceffff 	addiu	t6,t6,-1
9d003548:	012c4821 	addu	t1,t1,t4
9d00354c:	012c082b 	sltu	at,t1,t4
9d003550:	1020fffc 	beqz	at,9d003544 <b21>
9d003554:	00000000 	nop

9d003558 <i20>:
9d003558:	00e001f4 	teq	a3,zero,0x7
9d00355c:	0127001b 	divu	zero,t1,a3
9d003560:	00003812 	mflo	a3
9d003564:	00004810 	mfhi	t1
9d003568:	00c70019 	multu	a2,a3
9d00356c:	00002012 	mflo	a0
9d003570:	00094c00 	sll	t1,t1,0x10
9d003574:	310fffff 	andi	t7,t0,0xffff
9d003578:	012f4825 	or	t1,t1,t7
9d00357c:	0124782b 	sltu	t7,t1,a0
9d003580:	11e00006 	beqz	t7,9d00359c <i22>
9d003584:	01244823 	subu	t1,t1,a0

9d003588 <b23>:
9d003588:	24e7ffff 	addiu	a3,a3,-1
9d00358c:	012c4821 	addu	t1,t1,t4
9d003590:	012c082b 	sltu	at,t1,t4
9d003594:	1020fffc 	beqz	at,9d003588 <b23>
9d003598:	00000000 	nop

9d00359c <i22>:
9d00359c:	000e7400 	sll	t6,t6,0x10
9d0035a0:	01c77021 	addu	t6,t6,a3
9d0035a4:	01cb0019 	multu	t6,t3
9d0035a8:	00003812 	mflo	a3
9d0035ac:	00002010 	mfhi	a0
9d0035b0:	24080000 	li	t0,0
9d0035b4:	0107782b 	sltu	t7,t0,a3
9d0035b8:	01074023 	subu	t0,t0,a3
9d0035bc:	012f102b 	sltu	v0,t1,t7
9d0035c0:	012f4823 	subu	t1,t1,t7
9d0035c4:	0124782b 	sltu	t7,t1,a0
9d0035c8:	01e27825 	or	t7,t7,v0
9d0035cc:	11e0000b 	beqz	t7,9d0035fc <i24>
9d0035d0:	01244823 	subu	t1,t1,a0

9d0035d4 <Dlab3>:
9d0035d4:	25ceffff 	addiu	t6,t6,-1
9d0035d8:	010b4021 	addu	t0,t0,t3
9d0035dc:	010b782b 	sltu	t7,t0,t3
9d0035e0:	012c4821 	addu	t1,t1,t4
9d0035e4:	012f4821 	addu	t1,t1,t7
9d0035e8:	112c0002 	beq	t1,t4,9d0035f4 <L31>
9d0035ec:	00000000 	nop
9d0035f0:	012c782b 	sltu	t7,t1,t4

9d0035f4 <L31>:
9d0035f4:	11e0fff7 	beqz	t7,9d0035d4 <Dlab3>
9d0035f8:	00000000 	nop

9d0035fc <i24>:
9d0035fc:	152c0006 	bne	t1,t4,9d003618 <i25>
9d003600:	00000000 	nop
9d003604:	000b2025 	or	a0,zero,t3
9d003608:	00084825 	or	t1,zero,t0
9d00360c:	240d0000 	li	t5,0
9d003610:	1000002a 	b	9d0036bc <e25>
9d003614:	000d3825 	or	a3,zero,t5

9d003618 <i25>:
9d003618:	000c3c02 	srl	a3,t4,0x10
9d00361c:	00e001f4 	teq	a3,zero,0x7
9d003620:	0127001b 	divu	zero,t1,a3
9d003624:	00006812 	mflo	t5
9d003628:	00004810 	mfhi	t1
9d00362c:	3186ffff 	andi	a2,t4,0xffff
9d003630:	00cd0019 	multu	a2,t5
9d003634:	00002012 	mflo	a0
9d003638:	00094c00 	sll	t1,t1,0x10
9d00363c:	00087c02 	srl	t7,t0,0x10
9d003640:	012f4825 	or	t1,t1,t7
9d003644:	0124782b 	sltu	t7,t1,a0
9d003648:	11e00006 	beqz	t7,9d003664 <i26>
9d00364c:	01244823 	subu	t1,t1,a0

9d003650 <b27>:
9d003650:	25adffff 	addiu	t5,t5,-1
9d003654:	012c4821 	addu	t1,t1,t4
9d003658:	012c082b 	sltu	at,t1,t4
9d00365c:	1020fffc 	beqz	at,9d003650 <b27>
9d003660:	00000000 	nop

9d003664 <i26>:
9d003664:	00e001f4 	teq	a3,zero,0x7
9d003668:	0127001b 	divu	zero,t1,a3
9d00366c:	00003812 	mflo	a3
9d003670:	00004810 	mfhi	t1
9d003674:	00c70019 	multu	a2,a3
9d003678:	00002012 	mflo	a0
9d00367c:	00094c00 	sll	t1,t1,0x10
9d003680:	310fffff 	andi	t7,t0,0xffff
9d003684:	012f4825 	or	t1,t1,t7
9d003688:	0124782b 	sltu	t7,t1,a0
9d00368c:	11e00006 	beqz	t7,9d0036a8 <i28>
9d003690:	01244823 	subu	t1,t1,a0

9d003694 <b29>:
9d003694:	24e7ffff 	addiu	a3,a3,-1
9d003698:	012c4821 	addu	t1,t1,t4
9d00369c:	012c082b 	sltu	at,t1,t4
9d0036a0:	1020fffc 	beqz	at,9d003694 <b29>
9d0036a4:	00000000 	nop

9d0036a8 <i28>:
9d0036a8:	000d6c00 	sll	t5,t5,0x10
9d0036ac:	01a76821 	addu	t5,t5,a3
9d0036b0:	01ab0019 	multu	t5,t3
9d0036b4:	00003812 	mflo	a3
9d0036b8:	00002010 	mfhi	a0

9d0036bc <e25>:
9d0036bc:	24080000 	li	t0,0
9d0036c0:	0107782b 	sltu	t7,t0,a3
9d0036c4:	01074023 	subu	t0,t0,a3
9d0036c8:	012f102b 	sltu	v0,t1,t7
9d0036cc:	012f4823 	subu	t1,t1,t7
9d0036d0:	0124782b 	sltu	t7,t1,a0
9d0036d4:	01e27825 	or	t7,t7,v0
9d0036d8:	11e0000b 	beqz	t7,9d003708 <i30>
9d0036dc:	01244823 	subu	t1,t1,a0

9d0036e0 <Dlab4>:
9d0036e0:	25adffff 	addiu	t5,t5,-1
9d0036e4:	010b4021 	addu	t0,t0,t3
9d0036e8:	010b782b 	sltu	t7,t0,t3
9d0036ec:	012c4821 	addu	t1,t1,t4
9d0036f0:	012f4821 	addu	t1,t1,t7
9d0036f4:	112c0002 	beq	t1,t4,9d003700 <L32>
9d0036f8:	00000000 	nop
9d0036fc:	012c782b 	sltu	t7,t1,t4

9d003700 <L32>:
9d003700:	11e0fff7 	beqz	t7,9d0036e0 <Dlab4>
9d003704:	00000000 	nop

9d003708 <i30>:
9d003708:	05c00006 	bltz	t6,9d003724 <i31>
9d00370c:	00000000 	nop
9d003710:	01a0782a 	slt	t7,t5,zero
9d003714:	01ad6821 	addu	t5,t5,t5
9d003718:	01ce7021 	addu	t6,t6,t6
9d00371c:	01cf7021 	addu	t6,t6,t7
9d003720:	254affff 	addiu	t2,t2,-1

9d003724 <i31>:
9d003724:	01287825 	or	t7,t1,t0
9d003728:	11e00002 	beqz	t7,9d003734 <i32>
9d00372c:	00000000 	nop
9d003730:	35ad0001 	ori	t5,t5,0x1

9d003734 <i32>:
9d003734:	000e4825 	or	t1,zero,t6
9d003738:	000d4025 	or	t0,zero,t5
9d00373c:	254fffff 	addiu	t7,t2,-1
9d003740:	2de107fe 	sltiu	at,t7,2046
9d003744:	10200015 	beqz	at,9d00379c <Doveund>
9d003748:	00000000 	nop
9d00374c:	25080400 	addiu	t0,t0,1024
9d003750:	2d0f0400 	sltiu	t7,t0,1024
9d003754:	012f4821 	addu	t1,t1,t7
9d003758:	012f782b 	sltu	t7,t1,t7
9d00375c:	014f5021 	addu	t2,t2,t7

9d003760 <Dlab8>:
9d003760:	00087ac2 	srl	t7,t0,0xb
9d003764:	31ef0001 	andi	t7,t7,0x1
9d003768:	010f4023 	subu	t0,t0,t7
9d00376c:	000822c2 	srl	a0,t0,0xb
9d003770:	00097d40 	sll	t7,t1,0x15
9d003774:	008f2025 	or	a0,a0,t7
9d003778:	00097840 	sll	t7,t1,0x1
9d00377c:	000f7b02 	srl	t7,t7,0xc
9d003780:	00af2825 	or	a1,a1,t7
9d003784:	000a7d00 	sll	t7,t2,0x14
9d003788:	00af2825 	or	a1,a1,t7

9d00378c <Dret>:
9d00378c:	00041025 	or	v0,zero,a0
9d003790:	00051825 	or	v1,zero,a1

9d003794 <D999>:
9d003794:	03e00008 	jr	ra
9d003798:	00000000 	nop

9d00379c <Doveund>:
9d00379c:	1d400044 	bgtz	t2,9d0038b0 <Dinf>
9d0037a0:	00000000 	nop
9d0037a4:	240e0001 	li	t6,1
9d0037a8:	01ca7023 	subu	t6,t6,t2

9d0037ac <L33>:
9d0037ac:	2dc10020 	sltiu	at,t6,32
9d0037b0:	14200007 	bnez	at,9d0037d0 <L34>
9d0037b4:	00000000 	nop
9d0037b8:	21ceffe0 	addi	t6,t6,-32
9d0037bc:	0008202b 	sltu	a0,zero,t0
9d0037c0:	1009000d 	beq	zero,t1,9d0037f8 <L35>
9d0037c4:	01244025 	or	t0,t1,a0
9d0037c8:	1000fff8 	b	9d0037ac <L33>
9d0037cc:	34090000 	li	t1,0x0

9d0037d0 <L34>:
9d0037d0:	11c00009 	beqz	t6,9d0037f8 <L35>
9d0037d4:	00000000 	nop
9d0037d8:	000e3022 	neg	a2,t6
9d0037dc:	00c82004 	sllv	a0,t0,a2
9d0037e0:	00c93004 	sllv	a2,t1,a2
9d0037e4:	01c84006 	srlv	t0,t0,t6
9d0037e8:	01c94806 	srlv	t1,t1,t6
9d0037ec:	10800002 	beqz	a0,9d0037f8 <L35>
9d0037f0:	00c84025 	or	t0,a2,t0
9d0037f4:	35080002 	ori	t0,t0,0x2

9d0037f8 <L35>:
9d0037f8:	25080400 	addiu	t0,t0,1024
9d0037fc:	2d0f0400 	sltiu	t7,t0,1024
9d003800:	012f4821 	addu	t1,t1,t7
9d003804:	1000ffd6 	b	9d003760 <Dlab8>
9d003808:	000957c2 	srl	t2,t1,0x1f

9d00380c <DspecA>:
9d00380c:	0100782a 	slt	t7,t0,zero
9d003810:	01084021 	addu	t0,t0,t0
9d003814:	01294821 	addu	t1,t1,t1
9d003818:	15400017 	bnez	t2,9d003878 <i33>
9d00381c:	012f4821 	addu	t1,t1,t7
9d003820:	01287825 	or	t7,t1,t0
9d003824:	11e00014 	beqz	t7,9d003878 <i33>
9d003828:	00000000 	nop
9d00382c:	15200008 	bnez	t1,9d003850 <L36>
9d003830:	00000000 	nop
9d003834:	15000003 	bnez	t0,9d003844 <L37>
9d003838:	00000000 	nop
9d00383c:	1000ff29 	b	9d0034e4 <Dlab1>
9d003840:	240a0000 	li	t2,0

9d003844 <L37>:
9d003844:	01004825 	move	t1,t0
9d003848:	24080000 	li	t0,0
9d00384c:	254affe0 	addiu	t2,t2,-32

9d003850 <L36>:
9d003850:	712e7020 	clz	t6,t1
9d003854:	11c0ff23 	beqz	t6,9d0034e4 <Dlab1>
9d003858:	00000000 	nop
9d00385c:	014e5023 	subu	t2,t2,t6
9d003860:	000e3022 	neg	a2,t6
9d003864:	00c83006 	srlv	a2,t0,a2
9d003868:	01c84004 	sllv	t0,t0,t6
9d00386c:	01c94804 	sllv	t1,t1,t6
9d003870:	1000ff1c 	b	9d0034e4 <Dlab1>
9d003874:	01264825 	or	t1,t1,a2

9d003878 <i33>:
9d003878:	154d0005 	bne	t2,t5,9d003890 <i35>
9d00387c:	00000000 	nop
9d003880:	000c7840 	sll	t7,t4,0x1
9d003884:	01eb7825 	or	t7,t7,t3
9d003888:	11e0002b 	beqz	t7,9d003938 <Dnan>
9d00388c:	00000000 	nop

9d003890 <i35>:
9d003890:	240107ff 	li	at,2047
9d003894:	11a1000a 	beq	t5,at,9d0038c0 <DspecB>
9d003898:	00000000 	nop
9d00389c:	1140ffbb 	beqz	t2,9d00378c <Dret>
9d0038a0:	00000000 	nop
9d0038a4:	01287825 	or	t7,t1,t0
9d0038a8:	15e00023 	bnez	t7,9d003938 <Dnan>
9d0038ac:	00000000 	nop

9d0038b0 <Dinf>:
9d0038b0:	3c017ff0 	lui	at,0x7ff0
9d0038b4:	00a12825 	or	a1,a1,at
9d0038b8:	1000ffb4 	b	9d00378c <Dret>
9d0038bc:	24040000 	li	a0,0

9d0038c0 <DspecB>:
9d0038c0:	0160782a 	slt	t7,t3,zero
9d0038c4:	016b5821 	addu	t3,t3,t3
9d0038c8:	018c6021 	addu	t4,t4,t4
9d0038cc:	15a00017 	bnez	t5,9d00392c <i36>
9d0038d0:	018f6021 	addu	t4,t4,t7
9d0038d4:	018b7825 	or	t7,t4,t3
9d0038d8:	11e0fff5 	beqz	t7,9d0038b0 <Dinf>
9d0038dc:	00000000 	nop
9d0038e0:	15800008 	bnez	t4,9d003904 <L39>
9d0038e4:	00000000 	nop
9d0038e8:	15600003 	bnez	t3,9d0038f8 <L40>
9d0038ec:	00000000 	nop
9d0038f0:	1000ff00 	b	9d0034f4 <Dlab2>
9d0038f4:	240d0000 	li	t5,0

9d0038f8 <L40>:
9d0038f8:	01606025 	move	t4,t3
9d0038fc:	240b0000 	li	t3,0
9d003900:	25adffe0 	addiu	t5,t5,-32

9d003904 <L39>:
9d003904:	718e7020 	clz	t6,t4
9d003908:	11c0fefa 	beqz	t6,9d0034f4 <Dlab2>
9d00390c:	00000000 	nop
9d003910:	01ae6823 	subu	t5,t5,t6
9d003914:	000e3022 	neg	a2,t6
9d003918:	00cb3006 	srlv	a2,t3,a2
9d00391c:	01cb5804 	sllv	t3,t3,t6
9d003920:	01cc6004 	sllv	t4,t4,t6
9d003924:	1000fef3 	b	9d0034f4 <Dlab2>
9d003928:	01866025 	or	t4,t4,a2

9d00392c <i36>:
9d00392c:	018b7825 	or	t7,t4,t3
9d003930:	11e00002 	beqz	t7,9d00393c <i38>
9d003934:	00000000 	nop

9d003938 <Dnan>:
9d003938:	3c05fff8 	lui	a1,0xfff8

9d00393c <i38>:
9d00393c:	1000ff93 	b	9d00378c <Dret>
9d003940:	24040000 	li	a0,0
9d003944:	00000000 	nop

Disassembly of section .text:

9d003948 <LCD_Read>:
  PMDIN = data;        // send the data
}

// read data from the LCD.  
// rs : the value of the RS signal 0 for instructions status, 1 for data
unsigned char LCD_Read(int rs) {
9d003948:	27bdfff8 	addiu	sp,sp,-8
  volatile unsigned char val = 0; // volatile so 1st read doesn't get optimized away
9d00394c:	a3a00000 	sb	zero,0(sp)
  if(rs) { // 1 to read data
9d003950:	10800017 	beqz	a0,9d0039b0 <LCD_Read+0x68>
9d003954:	3c02bf80 	lui	v0,0xbf80
    PMADDRSET = 1 << PMABIT;
9d003958:	3c02bf80 	lui	v0,0xbf80
9d00395c:	24030400 	li	v1,1024
9d003960:	ac437028 	sw	v1,28712(v0)
  while(PMMODEbits.BUSY) { ; }
9d003964:	3c03bf80 	lui	v1,0xbf80
9d003968:	8c627010 	lw	v0,28688(v1)
9d00396c:	7c4203c0 	ext	v0,v0,0xf,0x1
9d003970:	1440fffd 	bnez	v0,9d003968 <LCD_Read+0x20>
9d003974:	3c02bf80 	lui	v0,0xbf80
  } else { // 0 to read command status
    PMADDRCLR = 1 << PMABIT;
  }
  // from the PIC32 reference manual, you must read twice to actually get the data
  waitPMP();                  // wait for the PMP to be ready
  val = PMDIN;
9d003978:	8c427040 	lw	v0,28736(v0)
9d00397c:	304200ff 	andi	v0,v0,0xff
9d003980:	a3a20000 	sb	v0,0(sp)
  while(PMMODEbits.BUSY) { ; }
9d003984:	3c03bf80 	lui	v1,0xbf80
9d003988:	8c627010 	lw	v0,28688(v1)
9d00398c:	7c4203c0 	ext	v0,v0,0xf,0x1
9d003990:	1440fffd 	bnez	v0,9d003988 <LCD_Read+0x40>
9d003994:	3c02bf80 	lui	v0,0xbf80
  waitPMP();
  val = PMDIN;
9d003998:	8c427040 	lw	v0,28736(v0)
9d00399c:	304200ff 	andi	v0,v0,0xff
9d0039a0:	a3a20000 	sb	v0,0(sp)
  return val;
9d0039a4:	93a20000 	lbu	v0,0(sp)
}
9d0039a8:	03e00008 	jr	ra
9d0039ac:	27bd0008 	addiu	sp,sp,8
    PMADDRCLR = 1 << PMABIT;
9d0039b0:	24030400 	li	v1,1024
9d0039b4:	ac437024 	sw	v1,28708(v0)
  while(PMMODEbits.BUSY) { ; }
9d0039b8:	1000ffeb 	b	9d003968 <LCD_Read+0x20>
9d0039bc:	3c03bf80 	lui	v1,0xbf80

9d0039c0 <LCD_Write>:
void LCD_Write(int rs, unsigned char data) {
9d0039c0:	27bdffd8 	addiu	sp,sp,-40
9d0039c4:	afbf0024 	sw	ra,36(sp)
9d0039c8:	afb10020 	sw	s1,32(sp)
9d0039cc:	afb0001c 	sw	s0,28(sp)
9d0039d0:	00808825 	move	s1,a0
9d0039d4:	00a08025 	move	s0,a1
  volatile unsigned char val = 0x80;
9d0039d8:	2402ff80 	li	v0,-128
9d0039dc:	a3a20010 	sb	v0,16(sp)
  while (val & 0x80) {
9d0039e0:	93a20010 	lbu	v0,16(sp)
9d0039e4:	7c021420 	seb	v0,v0
9d0039e8:	04410008 	bgez	v0,9d003a0c <LCD_Write+0x4c>
9d0039ec:	24020032 	li	v0,50
    val = LCD_Read(0);
9d0039f0:	0f400e52 	jal	9d003948 <LCD_Read>
9d0039f4:	00002025 	move	a0,zero
9d0039f8:	a3a20010 	sb	v0,16(sp)
  while (val & 0x80) {
9d0039fc:	93a20010 	lbu	v0,16(sp)
9d003a00:	7c021420 	seb	v0,v0
9d003a04:	0440fffa 	bltz	v0,9d0039f0 <LCD_Write+0x30>
9d003a08:	24020032 	li	v0,50
    _nop();
9d003a0c:	00000040 	ssnop
9d003a10:	2442ffff 	addiu	v0,v0,-1
  for(i = 0; i < 50; ++i) { // slight delay
9d003a14:	1440fffd 	bnez	v0,9d003a0c <LCD_Write+0x4c>
9d003a18:	00000000 	nop
  if(rs) { // 1 for data
9d003a1c:	1220000f 	beqz	s1,9d003a5c <LCD_Write+0x9c>
9d003a20:	3c02bf80 	lui	v0,0xbf80
    PMADDRSET = 1 << PMABIT;
9d003a24:	3c02bf80 	lui	v0,0xbf80
9d003a28:	24030400 	li	v1,1024
9d003a2c:	ac437028 	sw	v1,28712(v0)
  while(PMMODEbits.BUSY) { ; }
9d003a30:	3c03bf80 	lui	v1,0xbf80
9d003a34:	8c627010 	lw	v0,28688(v1)
9d003a38:	7c4203c0 	ext	v0,v0,0xf,0x1
9d003a3c:	1440fffd 	bnez	v0,9d003a34 <LCD_Write+0x74>
9d003a40:	3c02bf80 	lui	v0,0xbf80
  PMDIN = data;        // send the data
9d003a44:	ac507040 	sw	s0,28736(v0)
}
9d003a48:	8fbf0024 	lw	ra,36(sp)
9d003a4c:	8fb10020 	lw	s1,32(sp)
9d003a50:	8fb0001c 	lw	s0,28(sp)
9d003a54:	03e00008 	jr	ra
9d003a58:	27bd0028 	addiu	sp,sp,40
    PMADDRCLR = 1 << PMABIT; 
9d003a5c:	24030400 	li	v1,1024
9d003a60:	ac437024 	sw	v1,28708(v0)
  while(PMMODEbits.BUSY) { ; }
9d003a64:	1000fff3 	b	9d003a34 <LCD_Write+0x74>
9d003a68:	3c03bf80 	lui	v1,0xbf80

9d003a6c <LCD_Clear>:
void LCD_Clear(void) {
9d003a6c:	27bdffe8 	addiu	sp,sp,-24
9d003a70:	afbf0014 	sw	ra,20(sp)
  LCD_Write(0,0x01); //clear the whole screen
9d003a74:	24050001 	li	a1,1
9d003a78:	0f400e70 	jal	9d0039c0 <LCD_Write>
9d003a7c:	00002025 	move	a0,zero
}
9d003a80:	8fbf0014 	lw	ra,20(sp)
9d003a84:	03e00008 	jr	ra
9d003a88:	27bd0018 	addiu	sp,sp,24

9d003a8c <LCD_Home>:
void LCD_Home(void) {
9d003a8c:	27bdffe8 	addiu	sp,sp,-24
9d003a90:	afbf0014 	sw	ra,20(sp)
  LCD_Write(0,0x02);
9d003a94:	24050002 	li	a1,2
9d003a98:	0f400e70 	jal	9d0039c0 <LCD_Write>
9d003a9c:	00002025 	move	a0,zero
}
9d003aa0:	8fbf0014 	lw	ra,20(sp)
9d003aa4:	03e00008 	jr	ra
9d003aa8:	27bd0018 	addiu	sp,sp,24

9d003aac <LCD_Entry>:
void LCD_Entry(int id, int s) {
9d003aac:	27bdffe8 	addiu	sp,sp,-24
9d003ab0:	afbf0014 	sw	ra,20(sp)
  LCD_Write(0, 0x04 | (id << 1) | s);
9d003ab4:	00042040 	sll	a0,a0,0x1
9d003ab8:	00852825 	or	a1,a0,a1
9d003abc:	34a50004 	ori	a1,a1,0x4
9d003ac0:	30a500ff 	andi	a1,a1,0xff
9d003ac4:	0f400e70 	jal	9d0039c0 <LCD_Write>
9d003ac8:	00002025 	move	a0,zero
}
9d003acc:	8fbf0014 	lw	ra,20(sp)
9d003ad0:	03e00008 	jr	ra
9d003ad4:	27bd0018 	addiu	sp,sp,24

9d003ad8 <LCD_Display>:
void LCD_Display(int d, int c, int b) {
9d003ad8:	27bdffe8 	addiu	sp,sp,-24
9d003adc:	afbf0014 	sw	ra,20(sp)
  LCD_Write(0, 0x08 | (d << 2) | (c << 1) | b);
9d003ae0:	00042080 	sll	a0,a0,0x2
9d003ae4:	00862025 	or	a0,a0,a2
9d003ae8:	00052840 	sll	a1,a1,0x1
9d003aec:	00852025 	or	a0,a0,a1
9d003af0:	34850008 	ori	a1,a0,0x8
9d003af4:	30a500ff 	andi	a1,a1,0xff
9d003af8:	0f400e70 	jal	9d0039c0 <LCD_Write>
9d003afc:	00002025 	move	a0,zero
}
9d003b00:	8fbf0014 	lw	ra,20(sp)
9d003b04:	03e00008 	jr	ra
9d003b08:	27bd0018 	addiu	sp,sp,24

9d003b0c <LCD_Shift>:
void LCD_Shift(int sc, int rl) {
9d003b0c:	27bdffe8 	addiu	sp,sp,-24
9d003b10:	afbf0014 	sw	ra,20(sp)
  LCD_Write(0,0x1 | (sc << 3) | (rl << 2));
9d003b14:	000420c0 	sll	a0,a0,0x3
9d003b18:	00052880 	sll	a1,a1,0x2
9d003b1c:	00852825 	or	a1,a0,a1
9d003b20:	34a50001 	ori	a1,a1,0x1
9d003b24:	30a500fd 	andi	a1,a1,0xfd
9d003b28:	0f400e70 	jal	9d0039c0 <LCD_Write>
9d003b2c:	00002025 	move	a0,zero
}
9d003b30:	8fbf0014 	lw	ra,20(sp)
9d003b34:	03e00008 	jr	ra
9d003b38:	27bd0018 	addiu	sp,sp,24

9d003b3c <LCD_Function>:
void LCD_Function(int n, int f) {
9d003b3c:	27bdffe8 	addiu	sp,sp,-24
9d003b40:	afbf0014 	sw	ra,20(sp)
  LCD_Write(0, 0x30 | (n << 3) | (f << 2));
9d003b44:	000420c0 	sll	a0,a0,0x3
9d003b48:	00052880 	sll	a1,a1,0x2
9d003b4c:	00852825 	or	a1,a0,a1
9d003b50:	34a50030 	ori	a1,a1,0x30
9d003b54:	30a500fc 	andi	a1,a1,0xfc
9d003b58:	0f400e70 	jal	9d0039c0 <LCD_Write>
9d003b5c:	00002025 	move	a0,zero
}
9d003b60:	8fbf0014 	lw	ra,20(sp)
9d003b64:	03e00008 	jr	ra
9d003b68:	27bd0018 	addiu	sp,sp,24

9d003b6c <LCD_Move>:
void LCD_Move(int line, int col) {
9d003b6c:	27bdffe8 	addiu	sp,sp,-24
9d003b70:	afbf0014 	sw	ra,20(sp)
  LCD_Write(0, 0x80 | (line << 6) | col);
9d003b74:	00042180 	sll	a0,a0,0x6
9d003b78:	00852825 	or	a1,a0,a1
9d003b7c:	30a500ff 	andi	a1,a1,0xff
9d003b80:	34a50080 	ori	a1,a1,0x80
9d003b84:	0f400e70 	jal	9d0039c0 <LCD_Write>
9d003b88:	00002025 	move	a0,zero
}
9d003b8c:	8fbf0014 	lw	ra,20(sp)
9d003b90:	03e00008 	jr	ra
9d003b94:	27bd0018 	addiu	sp,sp,24

9d003b98 <LCD_CMove>:
void LCD_CMove(unsigned char addr) {
9d003b98:	27bdffe8 	addiu	sp,sp,-24
9d003b9c:	afbf0014 	sw	ra,20(sp)
  LCD_Write(0, 0x40 | addr);
9d003ba0:	34850040 	ori	a1,a0,0x40
9d003ba4:	0f400e70 	jal	9d0039c0 <LCD_Write>
9d003ba8:	00002025 	move	a0,zero
}
9d003bac:	8fbf0014 	lw	ra,20(sp)
9d003bb0:	03e00008 	jr	ra
9d003bb4:	27bd0018 	addiu	sp,sp,24

9d003bb8 <LCD_WriteChar>:
void LCD_WriteChar(char c) {         
9d003bb8:	27bdffe8 	addiu	sp,sp,-24
9d003bbc:	afbf0014 	sw	ra,20(sp)
  LCD_Write(1, c); 
9d003bc0:	308500ff 	andi	a1,a0,0xff
9d003bc4:	0f400e70 	jal	9d0039c0 <LCD_Write>
9d003bc8:	24040001 	li	a0,1
}
9d003bcc:	8fbf0014 	lw	ra,20(sp)
9d003bd0:	03e00008 	jr	ra
9d003bd4:	27bd0018 	addiu	sp,sp,24

9d003bd8 <LCD_WriteString>:
void LCD_WriteString(const char *str) {
9d003bd8:	27bdffe8 	addiu	sp,sp,-24
9d003bdc:	afbf0014 	sw	ra,20(sp)
9d003be0:	afb00010 	sw	s0,16(sp)
9d003be4:	00808025 	move	s0,a0
  while(*str) {
9d003be8:	80840000 	lb	a0,0(a0)
9d003bec:	10800006 	beqz	a0,9d003c08 <LCD_WriteString+0x30>
9d003bf0:	8fbf0014 	lw	ra,20(sp)
    LCD_WriteChar(*str); // increment string pointer after char sent
9d003bf4:	0f400eee 	jal	9d003bb8 <LCD_WriteChar>
9d003bf8:	26100001 	addiu	s0,s0,1
  while(*str) {
9d003bfc:	82040000 	lb	a0,0(s0)
9d003c00:	1480fffc 	bnez	a0,9d003bf4 <LCD_WriteString+0x1c>
9d003c04:	8fbf0014 	lw	ra,20(sp)
}
9d003c08:	8fb00010 	lw	s0,16(sp)
9d003c0c:	03e00008 	jr	ra
9d003c10:	27bd0018 	addiu	sp,sp,24

9d003c14 <LCD_CustomChar>:
void LCD_CustomChar(unsigned char val, const char * data) {
9d003c14:	27bdffd8 	addiu	sp,sp,-40
9d003c18:	afbf0024 	sw	ra,36(sp)
9d003c1c:	afb30020 	sw	s3,32(sp)
9d003c20:	afb2001c 	sw	s2,28(sp)
9d003c24:	afb10018 	sw	s1,24(sp)
9d003c28:	afb00014 	sw	s0,20(sp)
9d003c2c:	00a09825 	move	s3,a1
    LCD_CMove(((val & 7) << 2) | i);
9d003c30:	00042080 	sll	a0,a0,0x2
9d003c34:	3091001c 	andi	s1,a0,0x1c
  for(i = 0; i < 7; ++i) {
9d003c38:	00008025 	move	s0,zero
9d003c3c:	24120007 	li	s2,7
    LCD_CMove(((val & 7) << 2) | i);
9d003c40:	02302025 	or	a0,s1,s0
9d003c44:	0f400ee6 	jal	9d003b98 <LCD_CMove>
9d003c48:	308400ff 	andi	a0,a0,0xff
    LCD_Write(1, data[i]);
9d003c4c:	02701021 	addu	v0,s3,s0
9d003c50:	90450000 	lbu	a1,0(v0)
9d003c54:	0f400e70 	jal	9d0039c0 <LCD_Write>
9d003c58:	24040001 	li	a0,1
  for(i = 0; i < 7; ++i) {
9d003c5c:	26100001 	addiu	s0,s0,1
9d003c60:	5612fff8 	bnel	s0,s2,9d003c44 <LCD_CustomChar+0x30>
9d003c64:	02302025 	or	a0,s1,s0
}
9d003c68:	8fbf0024 	lw	ra,36(sp)
9d003c6c:	8fb30020 	lw	s3,32(sp)
9d003c70:	8fb2001c 	lw	s2,28(sp)
9d003c74:	8fb10018 	lw	s1,24(sp)
9d003c78:	8fb00014 	lw	s0,20(sp)
9d003c7c:	03e00008 	jr	ra
9d003c80:	27bd0028 	addiu	sp,sp,40

9d003c84 <LCD_Setup>:
void LCD_Setup() {
9d003c84:	27bdffe8 	addiu	sp,sp,-24
9d003c88:	afbf0014 	sw	ra,20(sp)
9d003c8c:	afb00010 	sw	s0,16(sp)
  int en = __builtin_disable_interrupts();  // disable interrupts, remember initial state
9d003c90:	41706000 	di	s0
9d003c94:	000000c0 	ehb
  IEC1bits.PMPIE = 0;    // disable PMP interrupts
9d003c98:	3c02bf88 	lui	v0,0xbf88
9d003c9c:	8c431070 	lw	v1,4208(v0)
9d003ca0:	7c031084 	ins	v1,zero,0x2,0x1
9d003ca4:	ac431070 	sw	v1,4208(v0)
  PMCON = 0;             // clear PMCON, like it is on reset
9d003ca8:	3c02bf80 	lui	v0,0xbf80
9d003cac:	ac407000 	sw	zero,28672(v0)
  PMCONbits.PTWREN = 1;  // PMENB strobe enabled
9d003cb0:	3c02bf80 	lui	v0,0xbf80
9d003cb4:	94437000 	lhu	v1,28672(v0)
9d003cb8:	24040001 	li	a0,1
9d003cbc:	7c834a44 	ins	v1,a0,0x9,0x1
9d003cc0:	a4437000 	sh	v1,28672(v0)
  PMCONbits.PTRDEN = 1;  // PMRD/PMWR enabled
9d003cc4:	94437000 	lhu	v1,28672(v0)
9d003cc8:	7c834204 	ins	v1,a0,0x8,0x1
9d003ccc:	a4437000 	sh	v1,28672(v0)
  PMCONbits.WRSP = 1;    // Read/write strobe is active high
9d003cd0:	94437000 	lhu	v1,28672(v0)
9d003cd4:	7c830844 	ins	v1,a0,0x1,0x1
9d003cd8:	a4437000 	sh	v1,28672(v0)
  PMCONbits.RDSP = 1;    // Read/write strobe is active high
9d003cdc:	94437000 	lhu	v1,28672(v0)
9d003ce0:	7c830004 	ins	v1,a0,0x0,0x1
9d003ce4:	a4437000 	sh	v1,28672(v0)
  PMMODE = 0;            // clear PMMODE like it is on reset
9d003ce8:	3c03bf80 	lui	v1,0xbf80
9d003cec:	ac607010 	sw	zero,28688(v1)
  PMMODEbits.MODE = 0x3; // set master mode 1, which uses a single strobe
9d003cf0:	3c03bf80 	lui	v1,0xbf80
9d003cf4:	94657010 	lhu	a1,28688(v1)
9d003cf8:	24060003 	li	a2,3
9d003cfc:	7cc54a04 	ins	a1,a2,0x8,0x2
9d003d00:	a4657010 	sh	a1,28688(v1)
  PMMODEbits.WAITB = 0x3;  // Tas in the LCD datasheet is 60 ns 
9d003d04:	94657010 	lhu	a1,28688(v1)
9d003d08:	7cc53984 	ins	a1,a2,0x6,0x2
9d003d0c:	a4657010 	sh	a1,28688(v1)
  PMMODEbits.WAITM = 0xF;  // PWeh in the data sheet is 230 ns (we don't quite meet this)
9d003d10:	94657010 	lhu	a1,28688(v1)
9d003d14:	2406000f 	li	a2,15
9d003d18:	7cc52884 	ins	a1,a2,0x2,0x4
9d003d1c:	a4657010 	sh	a1,28688(v1)
  PMMODEbits.WAITE = 0x1;  // after E is low wait Tah (10ns)
9d003d20:	94657010 	lhu	a1,28688(v1)
9d003d24:	7c850804 	ins	a1,a0,0x0,0x2
9d003d28:	a4657010 	sh	a1,28688(v1)
  PMAEN |= 1 << PMABIT;   // PMA is an address line
9d003d2c:	3c05bf80 	lui	a1,0xbf80
9d003d30:	8ca37050 	lw	v1,28752(a1)
9d003d34:	34630400 	ori	v1,v1,0x400
9d003d38:	aca37050 	sw	v1,28752(a1)
  PMCONbits.ON = 1;        // enable the PMP peripheral
9d003d3c:	94437000 	lhu	v1,28672(v0)
9d003d40:	7c837bc4 	ins	v1,a0,0xf,0x1
9d003d44:	a4437000 	sh	v1,28672(v0)
  LCD_Write(0, 0x30 | (n << 3) | (f << 2));
9d003d48:	24050038 	li	a1,56
9d003d4c:	0f400e70 	jal	9d0039c0 <LCD_Write>
9d003d50:	00002025 	move	a0,zero
  LCD_Write(0, 0x08 | (d << 2) | (c << 1) | b);
9d003d54:	2405000c 	li	a1,12
9d003d58:	0f400e70 	jal	9d0039c0 <LCD_Write>
9d003d5c:	00002025 	move	a0,zero
  LCD_Clear();             // clear the LCD 
9d003d60:	0f400e9b 	jal	9d003a6c <LCD_Clear>
9d003d64:	32100001 	andi	s0,s0,0x1
  LCD_Write(0, 0x04 | (id << 1) | s);
9d003d68:	24050006 	li	a1,6
9d003d6c:	0f400e70 	jal	9d0039c0 <LCD_Write>
9d003d70:	00002025 	move	a0,zero
  if(en & 0x1)             // if interrupts were enabled before, re-enable them
9d003d74:	12000003 	beqz	s0,9d003d84 <LCD_Setup+0x100>
9d003d78:	8fbf0014 	lw	ra,20(sp)
    __builtin_enable_interrupts();
9d003d7c:	41626020 	ei	v0
}
9d003d80:	8fbf0014 	lw	ra,20(sp)
9d003d84:	8fb00010 	lw	s0,16(sp)
9d003d88:	03e00008 	jr	ra
9d003d8c:	27bd0018 	addiu	sp,sp,24

9d003d90 <LCD_ClearLine>:


void LCD_ClearLine(int ln) {
9d003d90:	27bdffe8 	addiu	sp,sp,-24
9d003d94:	afbf0014 	sw	ra,20(sp)
  
  if (ln<2)
9d003d98:	28840002 	slti	a0,a0,2
9d003d9c:	1480000e 	bnez	a0,9d003dd8 <LCD_ClearLine+0x48>
9d003da0:	afb00010 	sw	s0,16(sp)
  LCD_Write(0, 0x80 | (line << 6) | col);
9d003da4:	240500c0 	li	a1,192
9d003da8:	0f400e70 	jal	9d0039c0 <LCD_Write>
9d003dac:	00002025 	move	a0,zero
void LCD_ClearLine(int ln) {
9d003db0:	24100010 	li	s0,16
  
  
  
  for (char i = 0; i < 16; i++)
  {
    LCD_WriteChar(' ');
9d003db4:	0f400eee 	jal	9d003bb8 <LCD_WriteChar>
9d003db8:	24040020 	li	a0,32
9d003dbc:	2610ffff 	addiu	s0,s0,-1
9d003dc0:	321000ff 	andi	s0,s0,0xff
  for (char i = 0; i < 16; i++)
9d003dc4:	1600fffb 	bnez	s0,9d003db4 <LCD_ClearLine+0x24>
9d003dc8:	8fbf0014 	lw	ra,20(sp)
  }
  
  
9d003dcc:	8fb00010 	lw	s0,16(sp)
9d003dd0:	03e00008 	jr	ra
9d003dd4:	27bd0018 	addiu	sp,sp,24
  LCD_Write(0, 0x80 | (line << 6) | col);
9d003dd8:	24050080 	li	a1,128
9d003ddc:	0f400e70 	jal	9d0039c0 <LCD_Write>
9d003de0:	00002025 	move	a0,zero
void LCD_ClearLine(int ln) {
9d003de4:	1000fff3 	b	9d003db4 <LCD_ClearLine+0x24>
9d003de8:	24100010 	li	s0,16

Disassembly of section .text.dp32subadd:

9d003dec <__subdf3>:
9d003dec:	3c018000 00e13826                       ...<&8..

9d003df4 <__adddf3>:
9d003df4:	00055840 000b5d42 000552c0 00047d42     @X..B]...R..B}..
9d003e04:	014f5025 00044ac0 3c088000 01485025     %PO..J.....<%PH.
9d003e14:	00077040 000e7542 00076ac0 00067d42     @p..Bu...j..B}..
9d003e24:	01af6825 000662c0 01a86825 256fffff     %h...b..%h....o%
9d003e34:	2de107fe 1020008d 00000000              ...-.. .....

9d003e40 <Blab1>:
9d003e40:	25cfffff 	addiu	t7,t6,-1
9d003e44:	2de107fe 	sltiu	at,t7,2046
9d003e48:	102000bb 	beqz	at,9d004138 <BspecB>
9d003e4c:	00000000 	nop

9d003e50 <Blab2>:
9d003e50:	3c018000 	lui	at,0x8000
9d003e54:	00a12824 	and	a1,a1,at
9d003e58:	016e4023 	subu	t0,t3,t6
9d003e5c:	1100002c 	beqz	t0,9d003f10 <Badd3>
9d003e60:	00000000 	nop
9d003e64:	19000015 	blez	t0,9d003ebc <i1>
9d003e68:	00000000 	nop

9d003e6c <L1>:
9d003e6c:	2d010020 	sltiu	at,t0,32
9d003e70:	14200007 	bnez	at,9d003e90 <L2>
9d003e74:	00000000 	nop
9d003e78:	2108ffe0 	addi	t0,t0,-32
9d003e7c:	000c302b 	sltu	a2,zero,t4
9d003e80:	100d0023 	beq	zero,t5,9d003f10 <Badd3>
9d003e84:	01a66025 	or	t4,t5,a2
9d003e88:	1000fff8 	b	9d003e6c <L1>
9d003e8c:	340d0000 	li	t5,0x0

9d003e90 <L2>:
9d003e90:	1100001f 	beqz	t0,9d003f10 <Badd3>
9d003e94:	00000000 	nop
9d003e98:	00082022 	neg	a0,t0
9d003e9c:	008c3004 	sllv	a2,t4,a0
9d003ea0:	008d2004 	sllv	a0,t5,a0
9d003ea4:	010c6006 	srlv	t4,t4,t0
9d003ea8:	010d6806 	srlv	t5,t5,t0
9d003eac:	10c00018 	beqz	a2,9d003f10 <Badd3>
9d003eb0:	008c6025 	or	t4,a0,t4
9d003eb4:	10000016 	b	9d003f10 <Badd3>
9d003eb8:	358c0002 	ori	t4,t4,0x2

9d003ebc <i1>:
9d003ebc:	000e5825 	or	t3,zero,t6
9d003ec0:	00084023 	negu	t0,t0

9d003ec4 <L4>:
9d003ec4:	2d010020 	sltiu	at,t0,32
9d003ec8:	14200007 	bnez	at,9d003ee8 <L5>
9d003ecc:	00000000 	nop
9d003ed0:	2108ffe0 	addi	t0,t0,-32
9d003ed4:	0009302b 	sltu	a2,zero,t1
9d003ed8:	100a000d 	beq	zero,t2,9d003f10 <Badd3>
9d003edc:	01464825 	or	t1,t2,a2
9d003ee0:	1000fff8 	b	9d003ec4 <L4>
9d003ee4:	340a0000 	li	t2,0x0

9d003ee8 <L5>:
9d003ee8:	11000009 	beqz	t0,9d003f10 <Badd3>
9d003eec:	00000000 	nop
9d003ef0:	00082022 	neg	a0,t0
9d003ef4:	00893004 	sllv	a2,t1,a0
9d003ef8:	008a2004 	sllv	a0,t2,a0
9d003efc:	01094806 	srlv	t1,t1,t0
9d003f00:	010a5006 	srlv	t2,t2,t0
9d003f04:	10c00002 	beqz	a2,9d003f10 <Badd3>
9d003f08:	00894825 	or	t1,a0,t1
9d003f0c:	35290002 	ori	t1,t1,0x2

9d003f10 <Badd3>:
9d003f10:	00a77826 	xor	t7,a1,a3
9d003f14:	05e0001c 	bltz	t7,9d003f88 <Bsub1>
9d003f18:	00000000 	nop
9d003f1c:	012c4821 	addu	t1,t1,t4
9d003f20:	012c782b 	sltu	t7,t1,t4
9d003f24:	014d5021 	addu	t2,t2,t5
9d003f28:	014f5021 	addu	t2,t2,t7
9d003f2c:	114d0002 	beq	t2,t5,9d003f38 <L7>
9d003f30:	00000000 	nop
9d003f34:	014d782b 	sltu	t7,t2,t5

9d003f38 <L7>:
9d003f38:	11e00037 	beqz	t7,9d004018 <Bres>
9d003f3c:	00000000 	nop
9d003f40:	312f0001 	andi	t7,t1,0x1
9d003f44:	11e00002 	beqz	t7,9d003f50 <i3>
9d003f48:	00000000 	nop
9d003f4c:	35290002 	ori	t1,t1,0x2

9d003f50 <i3>:
9d003f50:	00094842 	srl	t1,t1,0x1
9d003f54:	000a7fc0 	sll	t7,t2,0x1f
9d003f58:	012f4825 	or	t1,t1,t7
9d003f5c:	000a5042 	srl	t2,t2,0x1
9d003f60:	3c018000 	lui	at,0x8000
9d003f64:	01415025 	or	t2,t2,at
9d003f68:	256b0001 	addiu	t3,t3,1
9d003f6c:	240107ff 	li	at,2047
9d003f70:	15610029 	bne	t3,at,9d004018 <Bres>
9d003f74:	00000000 	nop
9d003f78:	3c017ff0 	lui	at,0x7ff0
9d003f7c:	00a12825 	or	a1,a1,at
9d003f80:	10000037 	b	9d004060 <BretA>
9d003f84:	24040000 	li	a0,0

9d003f88 <Bsub1>:
9d003f88:	012c782b 	sltu	t7,t1,t4
9d003f8c:	012c4823 	subu	t1,t1,t4
9d003f90:	014f102b 	sltu	v0,t2,t7
9d003f94:	014f5023 	subu	t2,t2,t7
9d003f98:	014d782b 	sltu	t7,t2,t5
9d003f9c:	01e27825 	or	t7,t7,v0
9d003fa0:	11e00007 	beqz	t7,9d003fc0 <i5>
9d003fa4:	014d5023 	subu	t2,t2,t5
9d003fa8:	3c018000 	lui	at,0x8000
9d003fac:	00a12826 	xor	a1,a1,at
9d003fb0:	0009782b 	sltu	t7,zero,t1
9d003fb4:	00094823 	negu	t1,t1
9d003fb8:	000a5023 	negu	t2,t2
9d003fbc:	014f5023 	subu	t2,t2,t7

9d003fc0 <i5>:
9d003fc0:	15400008 	bnez	t2,9d003fe4 <L8>
9d003fc4:	00000000 	nop
9d003fc8:	15200003 	bnez	t1,9d003fd8 <L9>
9d003fcc:	00000000 	nop
9d003fd0:	1000000d 	b	9d004008 <L10>
9d003fd4:	240b0000 	li	t3,0

9d003fd8 <L9>:
9d003fd8:	01205025 	move	t2,t1
9d003fdc:	24090000 	li	t1,0
9d003fe0:	256bffe0 	addiu	t3,t3,-32

9d003fe4 <L8>:
9d003fe4:	71484020 	clz	t0,t2
9d003fe8:	11000007 	beqz	t0,9d004008 <L10>
9d003fec:	00000000 	nop
9d003ff0:	01685823 	subu	t3,t3,t0
9d003ff4:	00082022 	neg	a0,t0
9d003ff8:	00892006 	srlv	a0,t1,a0
9d003ffc:	01094804 	sllv	t1,t1,t0
9d004000:	010a5004 	sllv	t2,t2,t0
9d004004:	01445025 	or	t2,t2,a0

9d004008 <L10>:
9d004008:	01497825 	or	t7,t2,t1
9d00400c:	15e00002 	bnez	t7,9d004018 <Bres>
9d004010:	00000000 	nop
9d004014:	24050000 	li	a1,0

9d004018 <Bres>:
9d004018:	19600068 	blez	t3,9d0041bc <Bund>
9d00401c:	00000000 	nop

9d004020 <Blab8>:
9d004020:	25290400 	addiu	t1,t1,1024
9d004024:	2d2f0400 	sltiu	t7,t1,1024
9d004028:	014f5021 	addu	t2,t2,t7
9d00402c:	014f782b 	sltu	t7,t2,t7
9d004030:	016f5821 	addu	t3,t3,t7
9d004034:	00097ac2 	srl	t7,t1,0xb
9d004038:	31ef0001 	andi	t7,t7,0x1
9d00403c:	012f4823 	subu	t1,t1,t7
9d004040:	000922c2 	srl	a0,t1,0xb
9d004044:	000a7d40 	sll	t7,t2,0x15
9d004048:	008f2025 	or	a0,a0,t7
9d00404c:	000a7840 	sll	t7,t2,0x1
9d004050:	000f7b02 	srl	t7,t7,0xc
9d004054:	00af2825 	or	a1,a1,t7
9d004058:	000b7d00 	sll	t7,t3,0x14
9d00405c:	00af2825 	or	a1,a1,t7

9d004060 <BretA>:
9d004060:	00041025 	or	v0,zero,a0
9d004064:	00051825 	or	v1,zero,a1

9d004068 <B999>:
9d004068:	03e00008 	jr	ra
9d00406c:	00000000 	nop

9d004070 <BspecA>:
9d004070:	0120782a 	slt	t7,t1,zero
9d004074:	01294821 	addu	t1,t1,t1
9d004078:	014a5021 	addu	t2,t2,t2
9d00407c:	15600023 	bnez	t3,9d00410c <i7>
9d004080:	014f5021 	addu	t2,t2,t7
9d004084:	01497825 	or	t7,t2,t1
9d004088:	11e00014 	beqz	t7,9d0040dc <i8>
9d00408c:	00000000 	nop
9d004090:	15400008 	bnez	t2,9d0040b4 <L11>
9d004094:	00000000 	nop
9d004098:	15200003 	bnez	t1,9d0040a8 <L12>
9d00409c:	00000000 	nop
9d0040a0:	1000ff67 	b	9d003e40 <Blab1>
9d0040a4:	240b0000 	li	t3,0

9d0040a8 <L12>:
9d0040a8:	01205025 	move	t2,t1
9d0040ac:	24090000 	li	t1,0
9d0040b0:	256bffe0 	addiu	t3,t3,-32

9d0040b4 <L11>:
9d0040b4:	71484020 	clz	t0,t2
9d0040b8:	1100ff61 	beqz	t0,9d003e40 <Blab1>
9d0040bc:	00000000 	nop
9d0040c0:	01685823 	subu	t3,t3,t0
9d0040c4:	00082022 	neg	a0,t0
9d0040c8:	00892006 	srlv	a0,t1,a0
9d0040cc:	01094804 	sllv	t1,t1,t0
9d0040d0:	010a5004 	sllv	t2,t2,t0
9d0040d4:	1000ff5a 	b	9d003e40 <Blab1>
9d0040d8:	01445025 	or	t2,t2,a0

9d0040dc <i8>:
9d0040dc:	240107ff 	li	at,2047
9d0040e0:	11c10015 	beq	t6,at,9d004138 <BspecB>
9d0040e4:	00000000 	nop
9d0040e8:	00e74021 	addu	t0,a3,a3
9d0040ec:	01067825 	or	t7,t0,a2
9d0040f0:	15e00003 	bnez	t7,9d004100 <BretB>
9d0040f4:	00000000 	nop
9d0040f8:	04e0ffd9 	bltz	a3,9d004060 <BretA>
9d0040fc:	00000000 	nop

9d004100 <BretB>:
9d004100:	00061025 	or	v0,zero,a2
9d004104:	1000ffd8 	b	9d004068 <B999>
9d004108:	00071825 	or	v1,zero,a3

9d00410c <i7>:
9d00410c:	01497825 	or	t7,t2,t1
9d004110:	15e00027 	bnez	t7,9d0041b0 <Bnan>
9d004114:	00000000 	nop
9d004118:	240107ff 	li	at,2047
9d00411c:	15c1ffd0 	bne	t6,at,9d004060 <BretA>
9d004120:	00000000 	nop
9d004124:	00a77826 	xor	t7,a1,a3
9d004128:	05e00021 	bltz	t7,9d0041b0 <Bnan>
9d00412c:	00000000 	nop
9d004130:	1000fff3 	b	9d004100 <BretB>
9d004134:	00000000 	nop

9d004138 <BspecB>:
9d004138:	0180782a 	slt	t7,t4,zero
9d00413c:	018c6021 	addu	t4,t4,t4
9d004140:	01ad6821 	addu	t5,t5,t5
9d004144:	15c00017 	bnez	t6,9d0041a4 <i11>
9d004148:	01af6821 	addu	t5,t5,t7
9d00414c:	01ac7825 	or	t7,t5,t4
9d004150:	11e0ffc3 	beqz	t7,9d004060 <BretA>
9d004154:	00000000 	nop
9d004158:	15a00008 	bnez	t5,9d00417c <L14>
9d00415c:	00000000 	nop
9d004160:	15800003 	bnez	t4,9d004170 <L15>
9d004164:	00000000 	nop
9d004168:	1000ff39 	b	9d003e50 <Blab2>
9d00416c:	240e0000 	li	t6,0

9d004170 <L15>:
9d004170:	01806825 	move	t5,t4
9d004174:	240c0000 	li	t4,0
9d004178:	25ceffe0 	addiu	t6,t6,-32

9d00417c <L14>:
9d00417c:	71a84020 	clz	t0,t5
9d004180:	1100ff33 	beqz	t0,9d003e50 <Blab2>
9d004184:	00000000 	nop
9d004188:	01c87023 	subu	t6,t6,t0
9d00418c:	00082022 	neg	a0,t0
9d004190:	008c2006 	srlv	a0,t4,a0
9d004194:	010c6004 	sllv	t4,t4,t0
9d004198:	010d6804 	sllv	t5,t5,t0
9d00419c:	1000ff2c 	b	9d003e50 <Blab2>
9d0041a0:	01a46825 	or	t5,t5,a0

9d0041a4 <i11>:
9d0041a4:	01ac7825 	or	t7,t5,t4
9d0041a8:	11e0ffd5 	beqz	t7,9d004100 <BretB>
9d0041ac:	00000000 	nop

9d0041b0 <Bnan>:
9d0041b0:	3c05fff8 	lui	a1,0xfff8
9d0041b4:	1000ffaa 	b	9d004060 <BretA>
9d0041b8:	24040000 	li	a0,0

9d0041bc <Bund>:
9d0041bc:	24080001 	li	t0,1
9d0041c0:	010b4023 	subu	t0,t0,t3

9d0041c4 <L17>:
9d0041c4:	2d010020 	sltiu	at,t0,32
9d0041c8:	14200007 	bnez	at,9d0041e8 <L18>
9d0041cc:	00000000 	nop
9d0041d0:	2108ffe0 	addi	t0,t0,-32
9d0041d4:	0009302b 	sltu	a2,zero,t1
9d0041d8:	100a000d 	beq	zero,t2,9d004210 <L19>
9d0041dc:	01464825 	or	t1,t2,a2
9d0041e0:	1000fff8 	b	9d0041c4 <L17>
9d0041e4:	340a0000 	li	t2,0x0

9d0041e8 <L18>:
9d0041e8:	11000009 	beqz	t0,9d004210 <L19>
9d0041ec:	00000000 	nop
9d0041f0:	00082022 	neg	a0,t0
9d0041f4:	00893004 	sllv	a2,t1,a0
9d0041f8:	008a2004 	sllv	a0,t2,a0
9d0041fc:	01094806 	srlv	t1,t1,t0
9d004200:	010a5006 	srlv	t2,t2,t0
9d004204:	10c00002 	beqz	a2,9d004210 <L19>
9d004208:	00894825 	or	t1,a0,t1
9d00420c:	35290002 	ori	t1,t1,0x2

9d004210 <L19>:
9d004210:	1000ff83 	b	9d004020 <Blab8>
9d004214:	240b0000 	li	t3,0
9d004218:	00000000 	nop

Disassembly of section .text.dp32mul:

9d00421c <__muldf3>:
9d00421c:	00055040 000a5542 00054ac0 00047d42     @P..BU...J..B}..
9d00422c:	012f4825 000442c0 3c0e8000 012e4825     %H/..B.....<%H..
9d00423c:	00076840 000d6d42 000762c0 00067d42     @h..Bm...b..B}..
9d00424c:	018f6025 00065ac0 018e6025 00a72826     %`...Z..%`..&(..
9d00425c:	00ae2824 254fffff 2de107fe 10200047     $(....O%...-G. .
9d00426c:	00000000                                ....

9d004270 <Clab1>:
9d004270:	25afffff 	addiu	t7,t5,-1
9d004274:	2de107fe 	sltiu	at,t7,2046
9d004278:	1020006f 	beqz	at,9d004438 <CspecB>
9d00427c:	00000000 	nop

9d004280 <Clab2>:
9d004280:	25affc02 	addiu	t7,t5,-1022
9d004284:	014f5021 	addu	t2,t2,t7
9d004288:	012c0019 	multu	t1,t4
9d00428c:	00003812 	mflo	a3
9d004290:	00007010 	mfhi	t6
9d004294:	010b0019 	multu	t0,t3
9d004298:	00002012 	mflo	a0
9d00429c:	00003010 	mfhi	a2
9d0042a0:	012b0019 	multu	t1,t3
9d0042a4:	00005812 	mflo	t3
9d0042a8:	00006810 	mfhi	t5
9d0042ac:	00cb3021 	addu	a2,a2,t3
9d0042b0:	00cb782b 	sltu	t7,a2,t3
9d0042b4:	00ed3821 	addu	a3,a3,t5
9d0042b8:	00ef3821 	addu	a3,a3,t7
9d0042bc:	10ed0002 	beq	a3,t5,9d0042c8 <L20>
9d0042c0:	00000000 	nop
9d0042c4:	00ed782b 	sltu	t7,a3,t5

9d0042c8 <L20>:
9d0042c8:	01cf7021 	addu	t6,t6,t7
9d0042cc:	010c0019 	multu	t0,t4
9d0042d0:	00004012 	mflo	t0
9d0042d4:	00004810 	mfhi	t1
9d0042d8:	00c83021 	addu	a2,a2,t0
9d0042dc:	00c8782b 	sltu	t7,a2,t0
9d0042e0:	00e93821 	addu	a3,a3,t1
9d0042e4:	00ef3821 	addu	a3,a3,t7
9d0042e8:	10e90002 	beq	a3,t1,9d0042f4 <L21>
9d0042ec:	00000000 	nop
9d0042f0:	00e9782b 	sltu	t7,a3,t1

9d0042f4 <L21>:
9d0042f4:	01cf7021 	addu	t6,t6,t7
9d0042f8:	00867825 	or	t7,a0,a2
9d0042fc:	11e00002 	beqz	t7,9d004308 <i13>
9d004300:	00000000 	nop
9d004304:	34e70001 	ori	a3,a3,0x1

9d004308 <i13>:
9d004308:	000e4825 	or	t1,zero,t6
9d00430c:	05200006 	bltz	t1,9d004328 <i14>
9d004310:	00074025 	or	t0,zero,a3
9d004314:	0100782a 	slt	t7,t0,zero
9d004318:	01084021 	addu	t0,t0,t0
9d00431c:	01294821 	addu	t1,t1,t1
9d004320:	012f4821 	addu	t1,t1,t7
9d004324:	254affff 	addiu	t2,t2,-1

9d004328 <i14>:
9d004328:	254fffff 	addiu	t7,t2,-1
9d00432c:	2de107fe 	sltiu	at,t7,2046
9d004330:	10200068 	beqz	at,9d0044d4 <Coveund>
9d004334:	00000000 	nop
9d004338:	25080400 	addiu	t0,t0,1024
9d00433c:	2d0f0400 	sltiu	t7,t0,1024
9d004340:	012f4821 	addu	t1,t1,t7
9d004344:	012f782b 	sltu	t7,t1,t7
9d004348:	014f5021 	addu	t2,t2,t7

9d00434c <Clab8>:
9d00434c:	00087ac2 	srl	t7,t0,0xb
9d004350:	31ef0001 	andi	t7,t7,0x1
9d004354:	010f4023 	subu	t0,t0,t7
9d004358:	000822c2 	srl	a0,t0,0xb
9d00435c:	00097d40 	sll	t7,t1,0x15
9d004360:	008f2025 	or	a0,a0,t7
9d004364:	00097840 	sll	t7,t1,0x1
9d004368:	000f7b02 	srl	t7,t7,0xc
9d00436c:	00af2825 	or	a1,a1,t7
9d004370:	000a7d00 	sll	t7,t2,0x14
9d004374:	00af2825 	or	a1,a1,t7

9d004378 <Cret>:
9d004378:	00041025 	or	v0,zero,a0
9d00437c:	00051825 	or	v1,zero,a1

9d004380 <C999>:
9d004380:	03e00008 	jr	ra
9d004384:	00000000 	nop

9d004388 <CspecA>:
9d004388:	0100782a 	slt	t7,t0,zero
9d00438c:	01084021 	addu	t0,t0,t0
9d004390:	01294821 	addu	t1,t1,t1
9d004394:	1540001c 	bnez	t2,9d004408 <i15>
9d004398:	012f4821 	addu	t1,t1,t7
9d00439c:	01287825 	or	t7,t1,t0
9d0043a0:	11e00014 	beqz	t7,9d0043f4 <i16>
9d0043a4:	00000000 	nop
9d0043a8:	15200008 	bnez	t1,9d0043cc <L22>
9d0043ac:	00000000 	nop
9d0043b0:	15000003 	bnez	t0,9d0043c0 <L23>
9d0043b4:	00000000 	nop
9d0043b8:	1000ffad 	b	9d004270 <Clab1>
9d0043bc:	240a0000 	li	t2,0

9d0043c0 <L23>:
9d0043c0:	01004825 	move	t1,t0
9d0043c4:	24080000 	li	t0,0
9d0043c8:	254affe0 	addiu	t2,t2,-32

9d0043cc <L22>:
9d0043cc:	712e7020 	clz	t6,t1
9d0043d0:	11c0ffa7 	beqz	t6,9d004270 <Clab1>
9d0043d4:	00000000 	nop
9d0043d8:	014e5023 	subu	t2,t2,t6
9d0043dc:	000e3822 	neg	a3,t6
9d0043e0:	00e83806 	srlv	a3,t0,a3
9d0043e4:	01c84004 	sllv	t0,t0,t6
9d0043e8:	01c94804 	sllv	t1,t1,t6
9d0043ec:	1000ffa0 	b	9d004270 <Clab1>
9d0043f0:	01274825 	or	t1,t1,a3

9d0043f4 <i16>:
9d0043f4:	240107ff 	li	at,2047
9d0043f8:	11a10033 	beq	t5,at,9d0044c8 <Cnan>
9d0043fc:	00000000 	nop
9d004400:	1000ffdd 	b	9d004378 <Cret>
9d004404:	00000000 	nop

9d004408 <i15>:
9d004408:	01287825 	or	t7,t1,t0
9d00440c:	15e0002e 	bnez	t7,9d0044c8 <Cnan>
9d004410:	00000000 	nop
9d004414:	15a00005 	bnez	t5,9d00442c <i17>
9d004418:	00000000 	nop
9d00441c:	000c7840 	sll	t7,t4,0x1
9d004420:	01eb7825 	or	t7,t7,t3
9d004424:	11e00028 	beqz	t7,9d0044c8 <Cnan>
9d004428:	00000000 	nop

9d00442c <i17>:
9d00442c:	240107ff 	li	at,2047
9d004430:	15a10021 	bne	t5,at,9d0044b8 <Cinf>
9d004434:	00000000 	nop

9d004438 <CspecB>:
9d004438:	0160782a 	slt	t7,t3,zero
9d00443c:	016b5821 	addu	t3,t3,t3
9d004440:	018c6021 	addu	t4,t4,t4
9d004444:	15a00019 	bnez	t5,9d0044ac <i18>
9d004448:	018f6021 	addu	t4,t4,t7
9d00444c:	018b7825 	or	t7,t4,t3
9d004450:	11e00014 	beqz	t7,9d0044a4 <i19>
9d004454:	00000000 	nop
9d004458:	15800008 	bnez	t4,9d00447c <L25>
9d00445c:	00000000 	nop
9d004460:	15600003 	bnez	t3,9d004470 <L26>
9d004464:	00000000 	nop
9d004468:	1000ff85 	b	9d004280 <Clab2>
9d00446c:	240d0000 	li	t5,0

9d004470 <L26>:
9d004470:	01606025 	move	t4,t3
9d004474:	240b0000 	li	t3,0
9d004478:	25adffe0 	addiu	t5,t5,-32

9d00447c <L25>:
9d00447c:	71863020 	clz	a2,t4
9d004480:	10c0ff7f 	beqz	a2,9d004280 <Clab2>
9d004484:	00000000 	nop
9d004488:	01a66823 	subu	t5,t5,a2
9d00448c:	00067022 	neg	t6,a2
9d004490:	01cb7006 	srlv	t6,t3,t6
9d004494:	00cb5804 	sllv	t3,t3,a2
9d004498:	00cc6004 	sllv	t4,t4,a2
9d00449c:	1000ff78 	b	9d004280 <Clab2>
9d0044a0:	018e6025 	or	t4,t4,t6

9d0044a4 <i19>:
9d0044a4:	1000ffb4 	b	9d004378 <Cret>
9d0044a8:	24040000 	li	a0,0

9d0044ac <i18>:
9d0044ac:	018b7825 	or	t7,t4,t3
9d0044b0:	15e00005 	bnez	t7,9d0044c8 <Cnan>
9d0044b4:	00000000 	nop

9d0044b8 <Cinf>:
9d0044b8:	3c017ff0 	lui	at,0x7ff0
9d0044bc:	00a12825 	or	a1,a1,at
9d0044c0:	1000ffad 	b	9d004378 <Cret>
9d0044c4:	24040000 	li	a0,0

9d0044c8 <Cnan>:
9d0044c8:	3c05fff8 	lui	a1,0xfff8
9d0044cc:	1000ffaa 	b	9d004378 <Cret>
9d0044d0:	24040000 	li	a0,0

9d0044d4 <Coveund>:
9d0044d4:	1d40fff8 	bgtz	t2,9d0044b8 <Cinf>
9d0044d8:	00000000 	nop
9d0044dc:	240e0001 	li	t6,1
9d0044e0:	01ca7023 	subu	t6,t6,t2

9d0044e4 <L28>:
9d0044e4:	2dc10020 	sltiu	at,t6,32
9d0044e8:	14200007 	bnez	at,9d004508 <L29>
9d0044ec:	00000000 	nop
9d0044f0:	21ceffe0 	addi	t6,t6,-32
9d0044f4:	0008302b 	sltu	a2,zero,t0
9d0044f8:	1009000d 	beq	zero,t1,9d004530 <L30>
9d0044fc:	01264025 	or	t0,t1,a2
9d004500:	1000fff8 	b	9d0044e4 <L28>
9d004504:	34090000 	li	t1,0x0

9d004508 <L29>:
9d004508:	11c00009 	beqz	t6,9d004530 <L30>
9d00450c:	00000000 	nop
9d004510:	000e3822 	neg	a3,t6
9d004514:	00e83004 	sllv	a2,t0,a3
9d004518:	00e93804 	sllv	a3,t1,a3
9d00451c:	01c84006 	srlv	t0,t0,t6
9d004520:	01c94806 	srlv	t1,t1,t6
9d004524:	10c00002 	beqz	a2,9d004530 <L30>
9d004528:	00e84025 	or	t0,a3,t0
9d00452c:	35080002 	ori	t0,t0,0x2

9d004530 <L30>:
9d004530:	25080400 	addiu	t0,t0,1024
9d004534:	2d0f0400 	sltiu	t7,t0,1024
9d004538:	012f4821 	addu	t1,t1,t7
9d00453c:	1000ff83 	b	9d00434c <Clab8>
9d004540:	000957c2 	srl	t2,t1,0x1f
9d004544:	00000000 	nop

Disassembly of section .text:

9d004548 <Ext1ISR>:

//Instead of using INT2 for this question I have wired a physical button to INT1, and I decided to use that button as you will see in the demo.

volatile int dummy = 0; //Variable to keep track of the state of the stopwatch, timing or idle.

void __ISR(7, IPL6SRS) Ext1ISR(void) { 
9d004548:	415de800 	rdpgpr	sp,sp
9d00454c:	401a7000 	mfc0	k0,c0_epc
9d004550:	401b6000 	mfc0	k1,c0_status
9d004554:	27bdff90 	addiu	sp,sp,-112
9d004558:	afba006c 	sw	k0,108(sp)
9d00455c:	401a6002 	mfc0	k0,c0_srsctl
9d004560:	afbb0068 	sw	k1,104(sp)
9d004564:	afba0064 	sw	k0,100(sp)
9d004568:	7c1b7844 	ins	k1,zero,0x1,0xf
9d00456c:	377b1800 	ori	k1,k1,0x1800
9d004570:	409b6000 	mtc0	k1,c0_status
9d004574:	00001012 	mflo	v0
9d004578:	afa2005c 	sw	v0,92(sp)
9d00457c:	00001810 	mfhi	v1
9d004580:	afa30058 	sw	v1,88(sp)


  int debounce;
  debounce = _CP0_GET_COUNT();
9d004584:	40034800 	mfc0	v1,c0_count
  while(_CP0_GET_COUNT() < debounce + CORE_TICKS/50){ ; } //Debounce algorithm same as Q6.16 but I needed 20ms, lower debounce waits caused occasional bounces.
9d004588:	3c02000c 	lui	v0,0xc
9d00458c:	24423500 	addiu	v0,v0,13568
9d004590:	00621821 	addu	v1,v1,v0
9d004594:	40024800 	mfc0	v0,c0_count
9d004598:	0043102b 	sltu	v0,v0,v1
9d00459c:	1440fffd 	bnez	v0,9d004594 <Ext1ISR+0x4c>
9d0045a0:	3c02bf88 	lui	v0,0xbf88

  if(!PORTDbits.RD8){ //After debounce test
9d0045a4:	8c4260d0 	lw	v0,24784(v0)
9d0045a8:	7c420200 	ext	v0,v0,0x8,0x1
9d0045ac:	1440001d 	bnez	v0,9d004624 <Ext1ISR+0xdc>
9d0045b0:	3c02bf88 	lui	v0,0xbf88



    NU32_LED1++;                  // Flip the LED's for visual que for when the button is pressed.
9d0045b4:	3c02bf88 	lui	v0,0xbf88
9d0045b8:	8c436160 	lw	v1,24928(v0)
9d0045bc:	30630001 	andi	v1,v1,0x1
9d0045c0:	38630001 	xori	v1,v1,0x1
9d0045c4:	90446160 	lbu	a0,24928(v0)
9d0045c8:	7c640004 	ins	a0,v1,0x0,0x1
9d0045cc:	a0446160 	sb	a0,24928(v0)
    NU32_LED2++;
9d0045d0:	8c436160 	lw	v1,24928(v0)
9d0045d4:	7c630040 	ext	v1,v1,0x1,0x1
9d0045d8:	38630001 	xori	v1,v1,0x1
9d0045dc:	90446160 	lbu	a0,24928(v0)
9d0045e0:	7c640844 	ins	a0,v1,0x1,0x1
9d0045e4:	a0446160 	sb	a0,24928(v0)
    if (dummy%2 == 0) //Check if the dummy is divisible by 2 and the remainder will tell its state. 
9d0045e8:	8f828010 	lw	v0,-32752(gp)
9d0045ec:	30420001 	andi	v0,v0,0x1
9d0045f0:	1040001e 	beqz	v0,9d00466c <Ext1ISR+0x124>
9d0045f4:	00000000 	nop
      _CP0_SET_COUNT(0); //Start of the timer, Set the core timer to 0.
      NU32_WriteUART3("Press the button again to stop the timer.\r\n");
 

    }
    if (dummy%2 == 1) //Check the dummy if it is not divisible by 2 it is time to stop the timer.
9d0045f8:	8f828010 	lw	v0,-32752(gp)
9d0045fc:	00021fc2 	srl	v1,v0,0x1f
9d004600:	00431021 	addu	v0,v0,v1
9d004604:	30420001 	andi	v0,v0,0x1
9d004608:	2442ffff 	addiu	v0,v0,-1
9d00460c:	5043001e 	beql	v0,v1,9d004688 <Ext1ISR+0x140>
9d004610:	afa00010 	sw	zero,16(sp)
      LCD_Move(1,0);
      LCD_WriteString(msgLCD); //Line36 to line 43 is just printing the time to both LCD and the UART.


    }
    dummy++; //Add one to dummy after each succesfull button push.
9d004614:	8f828010 	lw	v0,-32752(gp)
9d004618:	24420001 	addiu	v0,v0,1
9d00461c:	af828010 	sw	v0,-32752(gp)
  }

  IFS0bits.INT1IF = 0;            // clear interrupt flag for INT1
9d004620:	3c02bf88 	lui	v0,0xbf88
9d004624:	8c431030 	lw	v1,4144(v0)
9d004628:	7c0339c4 	ins	v1,zero,0x7,0x1
9d00462c:	ac431030 	sw	v1,4144(v0)


}
9d004630:	8fa2005c 	lw	v0,92(sp)
9d004634:	00400013 	mtlo	v0
9d004638:	8fa30058 	lw	v1,88(sp)
9d00463c:	00600011 	mthi	v1
9d004640:	41606000 	di
9d004644:	000000c0 	ehb
9d004648:	8fbb0064 	lw	k1,100(sp)
9d00464c:	8fba006c 	lw	k0,108(sp)
9d004650:	409b6002 	mtc0	k1,c0_srsctl
9d004654:	8fbb0068 	lw	k1,104(sp)
9d004658:	409a7000 	mtc0	k0,c0_epc
9d00465c:	27bd0070 	addiu	sp,sp,112
9d004660:	41dde800 	wrpgpr	sp,sp
9d004664:	409b6000 	mtc0	k1,c0_status
9d004668:	42000018 	eret
      _CP0_SET_COUNT(0); //Start of the timer, Set the core timer to 0.
9d00466c:	40824800 	mtc0	v0,c0_count
9d004670:	000000c0 	ehb
      NU32_WriteUART3("Press the button again to stop the timer.\r\n");
9d004674:	3c049d00 	lui	a0,0x9d00
9d004678:	0f401404 	jal	9d005010 <NU32_WriteUART3>
9d00467c:	24841e00 	addiu	a0,a0,7680
9d004680:	1000ffdd 	b	9d0045f8 <Ext1ISR+0xb0>
9d004684:	00000000 	nop
      char msgUART[50] = {}; //String for the UART message.
9d004688:	afa00014 	sw	zero,20(sp)
9d00468c:	afa00018 	sw	zero,24(sp)
9d004690:	afa0001c 	sw	zero,28(sp)
9d004694:	afa00020 	sw	zero,32(sp)
9d004698:	afa00024 	sw	zero,36(sp)
9d00469c:	afa00028 	sw	zero,40(sp)
9d0046a0:	afa0002c 	sw	zero,44(sp)
9d0046a4:	afa00030 	sw	zero,48(sp)
9d0046a8:	afa00034 	sw	zero,52(sp)
9d0046ac:	afa00038 	sw	zero,56(sp)
9d0046b0:	afa0003c 	sw	zero,60(sp)
9d0046b4:	a7a00040 	sh	zero,64(sp)
      char msgLCD[16] = {}; //String for the LCD message.
9d0046b8:	afa00044 	sw	zero,68(sp)
9d0046bc:	afa00048 	sw	zero,72(sp)
9d0046c0:	afa0004c 	sw	zero,76(sp)
9d0046c4:	afa00050 	sw	zero,80(sp)
      time = ((float) _CP0_GET_COUNT())/((float)CORE_TICKS); //Coversion form ticks to seconds.
9d0046c8:	40044800 	mfc0	a0,c0_count
9d0046cc:	0f4017e3 	jal	9d005f8c <__floatunsisf>
9d0046d0:	00000000 	nop
9d0046d4:	3c039d00 	lui	v1,0x9d00
9d0046d8:	8c651e94 	lw	a1,7828(v1)
9d0046dc:	0f40129b 	jal	9d004a6c <__divsf3>
9d0046e0:	00402025 	move	a0,v0
      sprintf(msgUART,"%.5f seconds elapsed.\r\n",time);
9d0046e4:	0f40167c 	jal	9d0059f0 <__extendsfdf2>
9d0046e8:	00402025 	move	a0,v0
9d0046ec:	00408025 	move	s0,v0
9d0046f0:	00608825 	move	s1,v1
9d0046f4:	00403025 	move	a2,v0
9d0046f8:	00603825 	move	a3,v1
9d0046fc:	3c059d00 	lui	a1,0x9d00
9d004700:	24a51e2c 	addiu	a1,a1,7724
9d004704:	0f401874 	jal	9d0061d0 <_dsprintf_eE>
9d004708:	27a40010 	addiu	a0,sp,16
      sprintf(msgLCD,"%.5f sec",time);
9d00470c:	02003025 	move	a2,s0
9d004710:	02203825 	move	a3,s1
9d004714:	3c059d00 	lui	a1,0x9d00
9d004718:	24a51e44 	addiu	a1,a1,7748
9d00471c:	0f401874 	jal	9d0061d0 <_dsprintf_eE>
9d004720:	27a40044 	addiu	a0,sp,68
      NU32_WriteUART3(msgUART);
9d004724:	0f401404 	jal	9d005010 <NU32_WriteUART3>
9d004728:	27a40010 	addiu	a0,sp,16
      NU32_WriteUART3("Press the right most button to start the timer.\r\n");
9d00472c:	3c049d00 	lui	a0,0x9d00
9d004730:	0f401404 	jal	9d005010 <NU32_WriteUART3>
9d004734:	24841e50 	addiu	a0,a0,7760
      LCD_Move(0,0); 
9d004738:	00002825 	move	a1,zero
9d00473c:	0f400edb 	jal	9d003b6c <LCD_Move>
9d004740:	00002025 	move	a0,zero
      LCD_WriteString("Time Elapsed:");
9d004744:	3c049d00 	lui	a0,0x9d00
9d004748:	0f400ef6 	jal	9d003bd8 <LCD_WriteString>
9d00474c:	24841e84 	addiu	a0,a0,7812
      LCD_Move(1,0);
9d004750:	00002825 	move	a1,zero
9d004754:	0f400edb 	jal	9d003b6c <LCD_Move>
9d004758:	24040001 	li	a0,1
      LCD_WriteString(msgLCD); //Line36 to line 43 is just printing the time to both LCD and the UART.
9d00475c:	0f400ef6 	jal	9d003bd8 <LCD_WriteString>
9d004760:	27a40044 	addiu	a0,sp,68
9d004764:	1000ffab 	b	9d004614 <Ext1ISR+0xcc>
9d004768:	00000000 	nop

9d00476c <main>:


int main(void) {
9d00476c:	27bdffe8 	addiu	sp,sp,-24
9d004770:	afbf0014 	sw	ra,20(sp)
  NU32_Startup(); // cache on, min flash wait, interrupts on, LED/button init, UART init
9d004774:	0f4013a8 	jal	9d004ea0 <NU32_Startup>
9d004778:	00000000 	nop
  LCD_Setup(); //LCD set up and functions
9d00477c:	0f400f21 	jal	9d003c84 <LCD_Setup>
9d004780:	00000000 	nop
  __builtin_disable_interrupts(); // disable interrupts
9d004784:	41626000 	di	v0
9d004788:	000000c0 	ehb
  
  INTCONCLR = 0x2;                // INT1 triggers on falling edge
9d00478c:	3c02bf88 	lui	v0,0xbf88
9d004790:	24030002 	li	v1,2
9d004794:	ac431004 	sw	v1,4100(v0)
  IPC1bits.INT1IP = 6;            // interrupt priority 6
9d004798:	3c02bf88 	lui	v0,0xbf88
9d00479c:	8c4310a0 	lw	v1,4256(v0)
9d0047a0:	24040006 	li	a0,6
9d0047a4:	7c83e684 	ins	v1,a0,0x1a,0x3
9d0047a8:	ac4310a0 	sw	v1,4256(v0)
  IPC1bits.INT1IS = 0;            // interrupt priority 0
9d0047ac:	8c4310a0 	lw	v1,4256(v0)
9d0047b0:	7c03ce04 	ins	v1,zero,0x18,0x2
9d0047b4:	ac4310a0 	sw	v1,4256(v0)
  IFS0bits.INT1IF = 0;            // clear the int flag
9d0047b8:	3c02bf88 	lui	v0,0xbf88
9d0047bc:	8c431030 	lw	v1,4144(v0)
9d0047c0:	7c0339c4 	ins	v1,zero,0x7,0x1
9d0047c4:	ac431030 	sw	v1,4144(v0)
  IEC0bits.INT1IE = 1;            // enable the INT1 interrupt
9d0047c8:	3c02bf88 	lui	v0,0xbf88
9d0047cc:	8c431060 	lw	v1,4192(v0)
9d0047d0:	24040001 	li	a0,1
9d0047d4:	7c8339c4 	ins	v1,a0,0x7,0x1
9d0047d8:	ac431060 	sw	v1,4192(v0)

  __builtin_enable_interrupts();  // enable interrupts
9d0047dc:	41626020 	ei	v0

  NU32_WriteUART3("Press the right most button to start the timer.\r\n"); //Command to get everyhting started.
9d0047e0:	3c049d00 	lui	a0,0x9d00
9d0047e4:	0f401404 	jal	9d005010 <NU32_WriteUART3>
9d0047e8:	24841e50 	addiu	a0,a0,7760
  while(1){ ; } //Infinite while loop.
9d0047ec:	1000ffff 	b	9d0047ec <main+0x80>
9d0047f0:	00000000 	nop

Disassembly of section .text.fpsubadd:

9d0047f4 <__subsf3>:
9d0047f4:	3c018000 00a12826                       ...<&(..

9d0047fc <__addsf3>:
9d0047fc:	00044dc2 312900ff 00055dc2 316b00ff     .M....)1.]....k1
9d00480c:	3c078000 00044200 01074025 00055200     ...<.B..%@...R..
9d00481c:	01475025 252dffff 2da100fe 10200061     %PG...-%...-a. .
9d00482c:	00000000                                ....

9d004830 <Blab1>:
9d004830:	256dffff 	addiu	t5,t3,-1
9d004834:	2da100fe 	sltiu	at,t5,254
9d004838:	10200077 	beqz	at,9d004a18 <BspecB>
9d00483c:	00000000 	nop

9d004840 <Blab2>:
9d004840:	012b6023 	subu	t4,t1,t3
9d004844:	0580000d 	bltz	t4,9d00487c <i1>
9d004848:	00000000 	nop
9d00484c:	29810020 	slti	at,t4,32
9d004850:	14200003 	bnez	at,9d004860 <i2>
9d004854:	00000000 	nop
9d004858:	10000015 	b	9d0048b0 <e1>
9d00485c:	240a0002 	li	t2,2

9d004860 <i2>:
9d004860:	000a3025 	or	a2,zero,t2
9d004864:	018a5006 	srlv	t2,t2,t4
9d004868:	018a6804 	sllv	t5,t2,t4
9d00486c:	11a60010 	beq	t5,a2,9d0048b0 <e1>
9d004870:	00000000 	nop
9d004874:	1000000e 	b	9d0048b0 <e1>
9d004878:	354a0002 	ori	t2,t2,0x2

9d00487c <i1>:
9d00487c:	000b4825 	or	t1,zero,t3
9d004880:	000c6023 	negu	t4,t4
9d004884:	29810020 	slti	at,t4,32
9d004888:	14200003 	bnez	at,9d004898 <i4>
9d00488c:	00000000 	nop
9d004890:	10000007 	b	9d0048b0 <e1>
9d004894:	24080002 	li	t0,2

9d004898 <i4>:
9d004898:	00083025 	or	a2,zero,t0
9d00489c:	01884006 	srlv	t0,t0,t4
9d0048a0:	01886804 	sllv	t5,t0,t4
9d0048a4:	11a60002 	beq	t5,a2,9d0048b0 <e1>
9d0048a8:	00000000 	nop
9d0048ac:	35080002 	ori	t0,t0,0x2

9d0048b0 <e1>:
9d0048b0:	00876024 	and	t4,a0,a3
9d0048b4:	01856826 	xor	t5,t4,a1
9d0048b8:	05a00010 	bltz	t5,9d0048fc <Bsub1>
9d0048bc:	00000000 	nop
9d0048c0:	010a4021 	addu	t0,t0,t2
9d0048c4:	010a682b 	sltu	t5,t0,t2
9d0048c8:	11a00017 	beqz	t5,9d004928 <Bres>
9d0048cc:	00000000 	nop
9d0048d0:	310d0001 	andi	t5,t0,0x1
9d0048d4:	11a00002 	beqz	t5,9d0048e0 <i7>
9d0048d8:	00000000 	nop
9d0048dc:	35080002 	ori	t0,t0,0x2

9d0048e0 <i7>:
9d0048e0:	00084042 	srl	t0,t0,0x1
9d0048e4:	25290001 	addiu	t1,t1,1
9d0048e8:	240100ff 	li	at,255
9d0048ec:	1521000e 	bne	t1,at,9d004928 <Bres>
9d0048f0:	00000000 	nop
9d0048f4:	1000000c 	b	9d004928 <Bres>
9d0048f8:	24080000 	li	t0,0

9d0048fc <Bsub1>:
9d0048fc:	010a682b 	sltu	t5,t0,t2
9d004900:	11a00004 	beqz	t5,9d004914 <i9>
9d004904:	010a4023 	subu	t0,t0,t2
9d004908:	00084023 	negu	t0,t0
9d00490c:	10000003 	b	9d00491c <e9>
9d004910:	01876026 	xor	t4,t4,a3

9d004914 <i9>:
9d004914:	11000050 	beqz	t0,9d004a58 <Bzer>
9d004918:	00000000 	nop

9d00491c <e9>:
9d00491c:	71063020 	clz	a2,t0
9d004920:	01264823 	subu	t1,t1,a2
9d004924:	00c84004 	sllv	t0,t0,a2

9d004928 <Bres>:
9d004928:	1920000e 	blez	t1,9d004964 <Bund>
9d00492c:	00000000 	nop

9d004930 <Blab12>:
9d004930:	25080080 	addiu	t0,t0,128
9d004934:	2d0d0080 	sltiu	t5,t0,128
9d004938:	012d4821 	addu	t1,t1,t5
9d00493c:	00086a02 	srl	t5,t0,0x8
9d004940:	31ad0001 	andi	t5,t5,0x1
9d004944:	010d4023 	subu	t0,t0,t5
9d004948:	00084040 	sll	t0,t0,0x1
9d00494c:	00084242 	srl	t0,t0,0x9
9d004950:	00096dc0 	sll	t5,t1,0x17
9d004954:	010d4025 	or	t0,t0,t5
9d004958:	010c1025 	or	v0,t0,t4

9d00495c <B999>:
9d00495c:	03e00008 	jr	ra
9d004960:	00000000 	nop

9d004964 <Bund>:
9d004964:	24060001 	li	a2,1
9d004968:	00c93023 	subu	a2,a2,t1
9d00496c:	2cc10020 	sltiu	at,a2,32
9d004970:	10200039 	beqz	at,9d004a58 <Bzer>
9d004974:	00000000 	nop
9d004978:	3c018000 	lui	at,0x8000
9d00497c:	01014025 	or	t0,t0,at
9d004980:	240d0020 	li	t5,32
9d004984:	01a66823 	subu	t5,t5,a2
9d004988:	01a84804 	sllv	t1,t0,t5
9d00498c:	11200002 	beqz	t1,9d004998 <i10>
9d004990:	00c84006 	srlv	t0,t0,a2
9d004994:	35080001 	ori	t0,t0,0x1

9d004998 <i10>:
9d004998:	24090000 	li	t1,0
9d00499c:	250d0080 	addiu	t5,t0,128
9d0049a0:	05a1ffe3 	bgez	t5,9d004930 <Blab12>
9d0049a4:	00000000 	nop
9d0049a8:	1000ffe1 	b	9d004930 <Blab12>
9d0049ac:	24090001 	li	t1,1

9d0049b0 <BspecA>:
9d0049b0:	1520000e 	bnez	t1,9d0049ec <i12>
9d0049b4:	00000000 	nop
9d0049b8:	01084021 	addu	t0,t0,t0
9d0049bc:	11000005 	beqz	t0,9d0049d4 <i13>
9d0049c0:	00000000 	nop
9d0049c4:	710c6020 	clz	t4,t0
9d0049c8:	012c4823 	subu	t1,t1,t4
9d0049cc:	1000ff98 	b	9d004830 <Blab1>
9d0049d0:	01884004 	sllv	t0,t0,t4

9d0049d4 <i13>:
9d0049d4:	240100ff 	li	at,255
9d0049d8:	1161000f 	beq	t3,at,9d004a18 <BspecB>
9d0049dc:	00000000 	nop
9d0049e0:	3c018000 	lui	at,0x8000
9d0049e4:	14a10018 	bne	a1,at,9d004a48 <BretB>
9d0049e8:	00000000 	nop

9d0049ec <i12>:
9d0049ec:	01086821 	addu	t5,t0,t0
9d0049f0:	15a0001b 	bnez	t5,9d004a60 <Bnan>
9d0049f4:	00000000 	nop
9d0049f8:	240100ff 	li	at,255
9d0049fc:	15610014 	bne	t3,at,9d004a50 <BretA>
9d004a00:	00000000 	nop
9d004a04:	00856826 	xor	t5,a0,a1
9d004a08:	05a00015 	bltz	t5,9d004a60 <Bnan>
9d004a0c:	00000000 	nop
9d004a10:	1000000d 	b	9d004a48 <BretB>
9d004a14:	00000000 	nop

9d004a18 <BspecB>:
9d004a18:	15600008 	bnez	t3,9d004a3c <i15>
9d004a1c:	00000000 	nop
9d004a20:	014a5021 	addu	t2,t2,t2
9d004a24:	1140000a 	beqz	t2,9d004a50 <BretA>
9d004a28:	00000000 	nop
9d004a2c:	714c6020 	clz	t4,t2
9d004a30:	016c5823 	subu	t3,t3,t4
9d004a34:	1000ff82 	b	9d004840 <Blab2>
9d004a38:	018a5004 	sllv	t2,t2,t4

9d004a3c <i15>:
9d004a3c:	014a6821 	addu	t5,t2,t2
9d004a40:	15a00007 	bnez	t5,9d004a60 <Bnan>
9d004a44:	00000000 	nop

9d004a48 <BretB>:
9d004a48:	1000ffc4 	b	9d00495c <B999>
9d004a4c:	00051025 	or	v0,zero,a1

9d004a50 <BretA>:
9d004a50:	1000ffc2 	b	9d00495c <B999>
9d004a54:	00041025 	or	v0,zero,a0

9d004a58 <Bzer>:
9d004a58:	1000ffc0 	b	9d00495c <B999>
9d004a5c:	24020000 	li	v0,0

9d004a60 <Bnan>:
9d004a60:	1000ffbe 	b	9d00495c <B999>
9d004a64:	3c02ffc0 	lui	v0,0xffc0
9d004a68:	00000000 	nop

Disassembly of section .text.fp32div:

9d004a6c <__divsf3>:
9d004a6c:	3c0b8000 000445c2 310800ff 000555c2     ...<.E.....1.U..
9d004a7c:	314a00ff 00043a00 00eb3825 00054a00     ..J1.:..%8...J..
9d004a8c:	012b4825 00857026 016e5824 250effff     %H+.&p..$Xn....%
9d004a9c:	2dc100fe 1020003f 00000000              ...-?. .....

9d004aa8 <Dlab1>:
9d004aa8:	254effff 	addiu	t6,t2,-1
9d004aac:	2dc100fe 	sltiu	at,t6,254
9d004ab0:	10200053 	beqz	at,9d004c00 <DspecB>
9d004ab4:	00000000 	nop

9d004ab8 <Dlab2>:
9d004ab8:	00e9082b 	sltu	at,a3,t1
9d004abc:	14200003 	bnez	at,9d004acc <i27>
9d004ac0:	00000000 	nop
9d004ac4:	00073842 	srl	a3,a3,0x1
9d004ac8:	25080001 	addiu	t0,t0,1

9d004acc <i27>:
9d004acc:	00096382 	srl	t4,t1,0xe
9d004ad0:	018001f4 	teq	t4,zero,0x7
9d004ad4:	00ec001b 	divu	zero,a3,t4
9d004ad8:	00002012 	mflo	a0
9d004adc:	00003010 	mfhi	a2
9d004ae0:	312d3fff 	andi	t5,t1,0x3fff
9d004ae4:	01a40019 	multu	t5,a0
9d004ae8:	00002812 	mflo	a1
9d004aec:	00063380 	sll	a2,a2,0xe
9d004af0:	00c5702b 	sltu	t6,a2,a1
9d004af4:	11c00004 	beqz	t6,9d004b08 <i28>
9d004af8:	00c53023 	subu	a2,a2,a1
9d004afc:	2484ffff 	addiu	a0,a0,-1
9d004b00:	00c93021 	addu	a2,a2,t1
9d004b04:	00c9702b 	sltu	t6,a2,t1

9d004b08 <i28>:
9d004b08:	018001f4 	teq	t4,zero,0x7
9d004b0c:	00cc001b 	divu	zero,a2,t4
9d004b10:	00003812 	mflo	a3
9d004b14:	00003010 	mfhi	a2
9d004b18:	01a70019 	multu	t5,a3
9d004b1c:	00002812 	mflo	a1
9d004b20:	00063380 	sll	a2,a2,0xe
9d004b24:	00c5702b 	sltu	t6,a2,a1
9d004b28:	11c00004 	beqz	t6,9d004b3c <i29>
9d004b2c:	00c53023 	subu	a2,a2,a1
9d004b30:	24e7ffff 	addiu	a3,a3,-1
9d004b34:	00c93021 	addu	a2,a2,t1
9d004b38:	00c9702b 	sltu	t6,a2,t1

9d004b3c <i29>:
9d004b3c:	00047380 	sll	t6,a0,0xe
9d004b40:	00ee3821 	addu	a3,a3,t6
9d004b44:	10c00002 	beqz	a2,9d004b50 <i30>
9d004b48:	00073900 	sll	a3,a3,0x4
9d004b4c:	34e70001 	ori	a3,a3,0x1

9d004b50 <i30>:
9d004b50:	240e007e 	li	t6,126
9d004b54:	01ca7023 	subu	t6,t6,t2
9d004b58:	010e4021 	addu	t0,t0,t6
9d004b5c:	250effff 	addiu	t6,t0,-1
9d004b60:	2dc100fe 	sltiu	at,t6,254
9d004b64:	10200034 	beqz	at,9d004c38 <Doveund>
9d004b68:	00000000 	nop

9d004b6c <Dlab8>:
9d004b6c:	24e70080 	addiu	a3,a3,128
9d004b70:	2cee0080 	sltiu	t6,a3,128
9d004b74:	010e4021 	addu	t0,t0,t6
9d004b78:	00077202 	srl	t6,a3,0x8
9d004b7c:	31ce0001 	andi	t6,t6,0x1
9d004b80:	00ee3823 	subu	a3,a3,t6
9d004b84:	00073840 	sll	a3,a3,0x1
9d004b88:	00073a42 	srl	a3,a3,0x9
9d004b8c:	000875c0 	sll	t6,t0,0x17
9d004b90:	00ee3825 	or	a3,a3,t6
9d004b94:	00eb1025 	or	v0,a3,t3

9d004b98 <D999>:
9d004b98:	03e00008 	jr	ra
9d004b9c:	00000000 	nop

9d004ba0 <DspecA>:
9d004ba0:	15000008 	bnez	t0,9d004bc4 <i31>
9d004ba4:	00000000 	nop
9d004ba8:	00e73821 	addu	a3,a3,a3
9d004bac:	10e00005 	beqz	a3,9d004bc4 <i31>
9d004bb0:	00000000 	nop
9d004bb4:	70ec6020 	clz	t4,a3
9d004bb8:	010c4023 	subu	t0,t0,t4
9d004bbc:	1000ffba 	b	9d004aa8 <Dlab1>
9d004bc0:	01873804 	sllv	a3,a3,t4

9d004bc4 <i31>:
9d004bc4:	15480004 	bne	t2,t0,9d004bd8 <i33>
9d004bc8:	00000000 	nop
9d004bcc:	01297021 	addu	t6,t1,t1
9d004bd0:	11c0002f 	beqz	t6,9d004c90 <Dnan>
9d004bd4:	00000000 	nop

9d004bd8 <i33>:
9d004bd8:	240100ff 	li	at,255
9d004bdc:	11410008 	beq	t2,at,9d004c00 <DspecB>
9d004be0:	00000000 	nop
9d004be4:	11000012 	beqz	t0,9d004c30 <Dzer>
9d004be8:	00000000 	nop
9d004bec:	00e77021 	addu	t6,a3,a3
9d004bf0:	15c00027 	bnez	t6,9d004c90 <Dnan>
9d004bf4:	00000000 	nop
9d004bf8:	10000022 	b	9d004c84 <Dinf>
9d004bfc:	00000000 	nop

9d004c00 <DspecB>:
9d004c00:	15400008 	bnez	t2,9d004c24 <i34>
9d004c04:	00000000 	nop
9d004c08:	01294821 	addu	t1,t1,t1
9d004c0c:	1120001d 	beqz	t1,9d004c84 <Dinf>
9d004c10:	00000000 	nop
9d004c14:	712c6020 	clz	t4,t1
9d004c18:	014c5023 	subu	t2,t2,t4
9d004c1c:	1000ffa6 	b	9d004ab8 <Dlab2>
9d004c20:	01894804 	sllv	t1,t1,t4

9d004c24 <i34>:
9d004c24:	01297021 	addu	t6,t1,t1
9d004c28:	15c00019 	bnez	t6,9d004c90 <Dnan>
9d004c2c:	00000000 	nop

9d004c30 <Dzer>:
9d004c30:	1000ffd9 	b	9d004b98 <D999>
9d004c34:	000b1025 	or	v0,zero,t3

9d004c38 <Doveund>:
9d004c38:	1d000012 	bgtz	t0,9d004c84 <Dinf>
9d004c3c:	00000000 	nop
9d004c40:	240c0001 	li	t4,1
9d004c44:	01886023 	subu	t4,t4,t0
9d004c48:	2d810020 	sltiu	at,t4,32
9d004c4c:	1020fff8 	beqz	at,9d004c30 <Dzer>
9d004c50:	00000000 	nop
9d004c54:	240e0020 	li	t6,32
9d004c58:	01cc7023 	subu	t6,t6,t4
9d004c5c:	01c74004 	sllv	t0,a3,t6
9d004c60:	11000002 	beqz	t0,9d004c6c <i37>
9d004c64:	01873806 	srlv	a3,a3,t4
9d004c68:	34e70002 	ori	a3,a3,0x2

9d004c6c <i37>:
9d004c6c:	24080000 	li	t0,0
9d004c70:	24ee0080 	addiu	t6,a3,128
9d004c74:	05c1ffbd 	bgez	t6,9d004b6c <Dlab8>
9d004c78:	00000000 	nop
9d004c7c:	1000ffbb 	b	9d004b6c <Dlab8>
9d004c80:	24080001 	li	t0,1

9d004c84 <Dinf>:
9d004c84:	3c017f80 	lui	at,0x7f80
9d004c88:	1000ffc3 	b	9d004b98 <D999>
9d004c8c:	01611025 	or	v0,t3,at

9d004c90 <Dnan>:
9d004c90:	1000ffc1 	b	9d004b98 <D999>
9d004c94:	3c02ffc0 	lui	v0,0xffc0
9d004c98:	00000000 	nop

Disassembly of section .text.__floatdidf:

9d004c9c <__floatdidf>:
9d004c9c:	00851025 	or	v0,a0,a1
9d004ca0:	1040003e 	beqz	v0,9d004d9c <__floatdidf+0x100>
9d004ca4:	00a03825 	move	a3,a1
9d004ca8:	24820001 	addiu	v0,a0,1
9d004cac:	0044302b 	sltu	a2,v0,a0
9d004cb0:	00c53021 	addu	a2,a2,a1
9d004cb4:	7c020844 	ins	v0,zero,0x1,0x1
9d004cb8:	00051fc2 	srl	v1,a1,0x1f
9d004cbc:	00463025 	or	a2,v0,a2
9d004cc0:	00801025 	move	v0,a0
9d004cc4:	10c00038 	beqz	a2,9d004da8 <__floatdidf+0x10c>
9d004cc8:	00031ac0 	sll	v1,v1,0xb
9d004ccc:	2406000a 	li	a2,10
9d004cd0:	10860040 	beq	a0,a2,9d004dd4 <__floatdidf+0x138>
9d004cd4:	2406fff6 	li	a2,-10
9d004cd8:	1086005f 	beq	a0,a2,9d004e58 <__floatdidf+0x1bc>
9d004cdc:	2406ffff 	li	a2,-1
9d004ce0:	04a00035 	bltz	a1,9d004db8 <__floatdidf+0x11c>
9d004ce4:	00000000 	nop
9d004ce8:	14e00042 	bnez	a3,9d004df4 <__floatdidf+0x158>
9d004cec:	70463020 	clz	a2,v0
9d004cf0:	24c60020 	addiu	a2,a2,32
9d004cf4:	24c4fff8 	addiu	a0,a2,-8
9d004cf8:	00024042 	srl	t0,v0,0x1
9d004cfc:	00044827 	nor	t1,zero,a0
9d004d00:	00872804 	sllv	a1,a3,a0
9d004d04:	01284006 	srlv	t0,t0,t1
9d004d08:	30870020 	andi	a3,a0,0x20
9d004d0c:	01052825 	or	a1,t0,a1
9d004d10:	00822004 	sllv	a0,v0,a0
9d004d14:	00801025 	move	v0,a0
9d004d18:	2408043e 	li	t0,1086
9d004d1c:	00a7200a 	movz	a0,a1,a3
9d004d20:	0007100b 	movn	v0,zero,a3
9d004d24:	01064023 	subu	t0,t0,a2
9d004d28:	00803825 	move	a3,a0
9d004d2c:	30440007 	andi	a0,v0,0x7
9d004d30:	10800010 	beqz	a0,9d004d74 <__floatdidf+0xd8>
9d004d34:	000720c2 	srl	a0,a3,0x3
9d004d38:	7c4500c0 	ext	a1,v0,0x3,0x1
9d004d3c:	24a50003 	addiu	a1,a1,3
9d004d40:	00452821 	addu	a1,v0,a1
9d004d44:	00a2102b 	sltu	v0,a1,v0
9d004d48:	00473821 	addu	a3,v0,a3
9d004d4c:	7ce40600 	ext	a0,a3,0x18,0x1
9d004d50:	10800007 	beqz	a0,9d004d70 <__floatdidf+0xd4>
9d004d54:	00a01025 	move	v0,a1
9d004d58:	000727c0 	sll	a0,a3,0x1f
9d004d5c:	00051042 	srl	v0,a1,0x1
9d004d60:	2408043f 	li	t0,1087
9d004d64:	00821025 	or	v0,a0,v0
9d004d68:	00073842 	srl	a3,a3,0x1
9d004d6c:	01064023 	subu	t0,t0,a2
9d004d70:	000720c2 	srl	a0,a3,0x3
9d004d74:	00072f40 	sll	a1,a3,0x1d
9d004d78:	000210c2 	srl	v0,v0,0x3
9d004d7c:	7c860500 	ext	a2,a0,0x14,0x1
9d004d80:	10c00003 	beqz	a2,9d004d90 <__floatdidf+0xf4>
9d004d84:	00a21025 	or	v0,a1,v0
9d004d88:	7c849800 	ext	a0,a0,0x0,0x14
9d004d8c:	00681825 	or	v1,v1,t0
9d004d90:	00031d00 	sll	v1,v1,0x14
9d004d94:	03e00008 	jr	ra
9d004d98:	00641825 	or	v1,v1,a0
9d004d9c:	00001025 	move	v0,zero
9d004da0:	03e00008 	jr	ra
9d004da4:	00001825 	move	v1,zero
9d004da8:	346303ff 	ori	v1,v1,0x3ff
9d004dac:	00031d00 	sll	v1,v1,0x14
9d004db0:	03e00008 	jr	ra
9d004db4:	00001025 	move	v0,zero
9d004db8:	5080002f 	beqzl	a0,9d004e78 <__floatdidf+0x1dc>
9d004dbc:	3c028000 	lui	v0,0x8000
9d004dc0:	00041023 	negu	v0,a0
9d004dc4:	0002382b 	sltu	a3,zero,v0
9d004dc8:	00052823 	negu	a1,a1
9d004dcc:	1000ffc6 	b	9d004ce8 <__floatdidf+0x4c>
9d004dd0:	00a73823 	subu	a3,a1,a3
9d004dd4:	14a0ffc0 	bnez	a1,9d004cd8 <__floatdidf+0x3c>
9d004dd8:	00000000 	nop
9d004ddc:	34630402 	ori	v1,v1,0x402
9d004de0:	3c040004 	lui	a0,0x4
9d004de4:	00031d00 	sll	v1,v1,0x14
9d004de8:	00001025 	move	v0,zero
9d004dec:	03e00008 	jr	ra
9d004df0:	00641825 	or	v1,v1,a0
9d004df4:	70e63020 	clz	a2,a3
9d004df8:	24040008 	li	a0,8
9d004dfc:	2408043e 	li	t0,1086
9d004e00:	00862023 	subu	a0,a0,a2
9d004e04:	18800018 	blez	a0,9d004e68 <__floatdidf+0x1cc>
9d004e08:	01064023 	subu	t0,t0,a2
9d004e0c:	00042827 	nor	a1,zero,a0
9d004e10:	00075040 	sll	t2,a3,0x1
9d004e14:	00aa5004 	sllv	t2,t2,a1
9d004e18:	00824806 	srlv	t1,v0,a0
9d004e1c:	24c5fff8 	addiu	a1,a2,-8
9d004e20:	308b0020 	andi	t3,a0,0x20
9d004e24:	01494825 	or	t1,t2,t1
9d004e28:	00872006 	srlv	a0,a3,a0
9d004e2c:	30ac0020 	andi	t4,a1,0x20
9d004e30:	008b480b 	movn	t1,a0,t3
9d004e34:	00405025 	move	t2,v0
9d004e38:	15800017 	bnez	t4,9d004e98 <__floatdidf+0x1fc>
9d004e3c:	000b200b 	movn	a0,zero,t3
9d004e40:	00a72804 	sllv	a1,a3,a1
9d004e44:	00a21025 	or	v0,a1,v0
9d004e48:	0002102b 	sltu	v0,zero,v0
9d004e4c:	00491025 	or	v0,v0,t1
9d004e50:	1000ffb6 	b	9d004d2c <__floatdidf+0x90>
9d004e54:	00803825 	move	a3,a0
9d004e58:	14a6ffa1 	bne	a1,a2,9d004ce0 <__floatdidf+0x44>
9d004e5c:	00000000 	nop
9d004e60:	1000ffdf 	b	9d004de0 <__floatdidf+0x144>
9d004e64:	34630402 	ori	v1,v1,0x402
9d004e68:	1480ffa3 	bnez	a0,9d004cf8 <__floatdidf+0x5c>
9d004e6c:	24c4fff8 	addiu	a0,a2,-8
9d004e70:	1000ffae 	b	9d004d2c <__floatdidf+0x90>
9d004e74:	24060008 	li	a2,8
9d004e78:	54a2ffd2 	bnel	a1,v0,9d004dc4 <__floatdidf+0x128>
9d004e7c:	00041023 	negu	v0,a0
9d004e80:	00003025 	move	a2,zero
9d004e84:	2408043e 	li	t0,1086
9d004e88:	00005025 	move	t2,zero
9d004e8c:	2405fff8 	li	a1,-8
9d004e90:	00004825 	move	t1,zero
9d004e94:	3c040080 	lui	a0,0x80
9d004e98:	1000ffeb 	b	9d004e48 <__floatdidf+0x1ac>
9d004e9c:	00aa1004 	sllv	v0,t2,a1

Disassembly of section .text:

9d004ea0 <NU32_Startup>:

// Perform startup routines:
//  Make NU32_LED1 and NU32_LED2 pins outputs (NU32_USER is by default an input)
//  Initialize the serial port - UART3 (no interrupt) 
//  Enable interrupts
void NU32_Startup() {
9d004ea0:	27bdfff8 	addiu	sp,sp,-8
9d004ea4:	afbf0004 	sw	ra,4(sp)
  // disable interrupts
  __builtin_disable_interrupts();
9d004ea8:	41626000 	di	v0
9d004eac:	000000c0 	ehb
  // see Chapter 2 "CPU for Devices with M4K Core" of the PIC32 reference manual
  // most of the other bits have prescribed values
  // microchip does not provide a _CP0_SET_CONFIG macro, so we directly use
  // the compiler built-in command _mtc0
  // to disable cache, use 0xa4210582 
  __builtin_mtc0(_CP0_CONFIG, _CP0_CONFIG_SELECT, 0xa4210583); 
9d004eb0:	3c02a421 	lui	v0,0xa421
9d004eb4:	24420583 	addiu	v0,v0,1411
9d004eb8:	40828000 	mtc0	v0,c0_config
9d004ebc:	000000c0 	ehb
  
  // set the prefectch cache wait state to 2, as per the
  // electrical characteristics data sheet
  CHECONbits.PFMWS = 0x2;   
9d004ec0:	3c02bf88 	lui	v0,0xbf88
9d004ec4:	8c434000 	lw	v1,16384(v0)
9d004ec8:	24050002 	li	a1,2
9d004ecc:	7ca31004 	ins	v1,a1,0x0,0x3
9d004ed0:	ac434000 	sw	v1,16384(v0)

  //enable prefetch for cacheable and noncacheable memory
  CHECONbits.PREFEN = 0x3; 
9d004ed4:	8c434000 	lw	v1,16384(v0)
9d004ed8:	24040003 	li	a0,3
9d004edc:	7c832904 	ins	v1,a0,0x4,0x2
9d004ee0:	ac434000 	sw	v1,16384(v0)

  // 0 data RAM access wait states
  BMXCONbits.BMXWSDRM = 0x0;
9d004ee4:	3c02bf88 	lui	v0,0xbf88
9d004ee8:	8c432000 	lw	v1,8192(v0)
9d004eec:	7c033184 	ins	v1,zero,0x6,0x1
9d004ef0:	ac432000 	sw	v1,8192(v0)
  
  // enable multi vector interrupts
  INTCONbits.MVEC = 0x1;
9d004ef4:	3c02bf88 	lui	v0,0xbf88
9d004ef8:	8c461000 	lw	a2,4096(v0)
9d004efc:	24030001 	li	v1,1
9d004f00:	7c666304 	ins	a2,v1,0xc,0x1
9d004f04:	ac461000 	sw	a2,4096(v0)

  // disable JTAG to get B10, B11, B12 and B13 back
  DDPCONbits.JTAGEN = 0;
9d004f08:	3c02bf81 	lui	v0,0xbf81
9d004f0c:	9046f200 	lbu	a2,-3584(v0)
9d004f10:	7c0618c4 	ins	a2,zero,0x3,0x1
9d004f14:	a046f200 	sb	a2,-3584(v0)

  TRISFCLR = 0x0003;  // Make F0 and F1 outputs (LED1 and LED2)
9d004f18:	3c02bf88 	lui	v0,0xbf88
9d004f1c:	ac446144 	sw	a0,24900(v0)
  NU32_LED1 = 1;      // LED1 is off
9d004f20:	3c02bf88 	lui	v0,0xbf88
9d004f24:	90446160 	lbu	a0,24928(v0)
9d004f28:	7c640004 	ins	a0,v1,0x0,0x1
9d004f2c:	a0446160 	sb	a0,24928(v0)
  NU32_LED2 = 0;      // LED2 is on
9d004f30:	90446160 	lbu	a0,24928(v0)
9d004f34:	7c040844 	ins	a0,zero,0x1,0x1
9d004f38:	a0446160 	sb	a0,24928(v0)

  // turn on UART3 without an interrupt
  U3MODEbits.BRGH = 0; // set baud to NU32_DESIRED_BAUD
9d004f3c:	3c02bf80 	lui	v0,0xbf80
9d004f40:	94446400 	lhu	a0,25600(v0)
9d004f44:	7c0418c4 	ins	a0,zero,0x3,0x1
9d004f48:	a4446400 	sh	a0,25600(v0)
  U3BRG = ((NU32_SYS_FREQ / NU32_DESIRED_BAUD) / 16) - 1;
9d004f4c:	3c04bf80 	lui	a0,0xbf80
9d004f50:	24060014 	li	a2,20
9d004f54:	ac866440 	sw	a2,25664(a0)

  // 8 bit, no parity bit, and 1 stop bit (8N1 setup)
  U3MODEbits.PDSEL = 0;
9d004f58:	94446400 	lhu	a0,25600(v0)
9d004f5c:	7c041044 	ins	a0,zero,0x1,0x2
9d004f60:	a4446400 	sh	a0,25600(v0)
  U3MODEbits.STSEL = 0;
9d004f64:	94446400 	lhu	a0,25600(v0)
9d004f68:	7c040004 	ins	a0,zero,0x0,0x1
9d004f6c:	a4446400 	sh	a0,25600(v0)

  // configure TX & RX pins as output & input pins
  U3STAbits.UTXEN = 1;
9d004f70:	3c04bf80 	lui	a0,0xbf80
9d004f74:	8c866410 	lw	a2,25616(a0)
9d004f78:	7c665284 	ins	a2,v1,0xa,0x1
9d004f7c:	ac866410 	sw	a2,25616(a0)
  U3STAbits.URXEN = 1;
9d004f80:	8c866410 	lw	a2,25616(a0)
9d004f84:	7c666304 	ins	a2,v1,0xc,0x1
9d004f88:	ac866410 	sw	a2,25616(a0)
  // configure hardware flow control using RTS and CTS
  U3MODEbits.UEN = 2;
9d004f8c:	94446400 	lhu	a0,25600(v0)
9d004f90:	7ca44a04 	ins	a0,a1,0x8,0x2
9d004f94:	a4446400 	sh	a0,25600(v0)

  // enable the uart
  U3MODEbits.ON = 1;
9d004f98:	94446400 	lhu	a0,25600(v0)
9d004f9c:	7c647bc4 	ins	a0,v1,0xf,0x1
9d004fa0:	a4446400 	sh	a0,25600(v0)

  __builtin_enable_interrupts();
9d004fa4:	41626020 	ei	v0
}
9d004fa8:	8fbf0004 	lw	ra,4(sp)
9d004fac:	03e00008 	jr	ra
9d004fb0:	27bd0008 	addiu	sp,sp,8

9d004fb4 <NU32_ReadUART3>:
// Read from UART3
// block other functions until you get a '\r' or '\n'
// send the pointer to your char array and the number of elements in the array
void NU32_ReadUART3(char * message, int maxLength) {
  char data = 0;
  int complete = 0, num_bytes = 0;
9d004fb4:	00003025 	move	a2,zero
  // loop until you get a '\r' or '\n'
  while (!complete) {
    if (U3STAbits.URXDA) { // if data is available
9d004fb8:	3c03bf80 	lui	v1,0xbf80
      data = U3RXREG;      // read the data
9d004fbc:	3c09bf80 	lui	t1,0xbf80
      if ((data == '\n') || (data == '\r')) {
9d004fc0:	2408000a 	li	t0,10
9d004fc4:	240a000d 	li	t2,13
    if (U3STAbits.URXDA) { // if data is available
9d004fc8:	8c626410 	lw	v0,25616(v1)
9d004fcc:	30420001 	andi	v0,v0,0x1
9d004fd0:	1040fffd 	beqz	v0,9d004fc8 <NU32_ReadUART3+0x14>
9d004fd4:	00000000 	nop
      data = U3RXREG;      // read the data
9d004fd8:	8d226430 	lw	v0,25648(t1)
9d004fdc:	7c021420 	seb	v0,v0
      if ((data == '\n') || (data == '\r')) {
9d004fe0:	50480009 	beql	v0,t0,9d005008 <NU32_ReadUART3+0x54>
9d004fe4:	00862021 	addu	a0,a0,a2
9d004fe8:	104a0006 	beq	v0,t2,9d005004 <NU32_ReadUART3+0x50>
9d004fec:	00863821 	addu	a3,a0,a2
        complete = 1;
      } else {
        message[num_bytes] = data;
9d004ff0:	a0e20000 	sb	v0,0(a3)
        ++num_bytes;
9d004ff4:	24c60001 	addiu	a2,a2,1
        // roll over if the array is too small
        if (num_bytes >= maxLength) {
9d004ff8:	00c5102a 	slt	v0,a2,a1
9d004ffc:	1000fff2 	b	9d004fc8 <NU32_ReadUART3+0x14>
9d005000:	0002300a 	movz	a2,zero,v0
        }
      }
    }
  }
  // end the string
  message[num_bytes] = '\0';
9d005004:	00862021 	addu	a0,a0,a2
}
9d005008:	03e00008 	jr	ra
9d00500c:	a0800000 	sb	zero,0(a0)

9d005010 <NU32_WriteUART3>:

// Write a character array using UART3
void NU32_WriteUART3(const char * string) {
  while (*string != '\0') {
9d005010:	80850000 	lb	a1,0(a0)
9d005014:	10a0000b 	beqz	a1,9d005044 <NU32_WriteUART3+0x34>
9d005018:	3c03bf80 	lui	v1,0xbf80
    while (U3STAbits.UTXBF) {
      ; // wait until tx buffer isn't full
    }
    U3TXREG = *string;
9d00501c:	3c06bf80 	lui	a2,0xbf80
    while (U3STAbits.UTXBF) {
9d005020:	8c626410 	lw	v0,25616(v1)
9d005024:	7c420240 	ext	v0,v0,0x9,0x1
9d005028:	1440fffd 	bnez	v0,9d005020 <NU32_WriteUART3+0x10>
9d00502c:	00000000 	nop
    U3TXREG = *string;
9d005030:	acc56420 	sw	a1,25632(a2)
    ++string;
9d005034:	24840001 	addiu	a0,a0,1
  while (*string != '\0') {
9d005038:	80850000 	lb	a1,0(a0)
9d00503c:	14a0fff8 	bnez	a1,9d005020 <NU32_WriteUART3+0x10>
9d005040:	00000000 	nop
  }
}
9d005044:	03e00008 	jr	ra
9d005048:	00000000 	nop

Disassembly of section .text.__pop_int:

9d00504c <__pop_int>:
9d00504c:	24020088 	li	v0,136
9d005050:	10a2003f 	beq	a1,v0,9d005150 <__pop_int+0x104>
9d005054:	28a20089 	slti	v0,a1,137
9d005058:	1040001b 	beqz	v0,9d0050c8 <__pop_int+0x7c>
9d00505c:	240200a0 	li	v0,160
9d005060:	24020081 	li	v0,129
9d005064:	10a20053 	beq	a1,v0,9d0051b4 <__pop_int+0x168>
9d005068:	28a20082 	slti	v0,a1,130
9d00506c:	10400006 	beqz	v0,9d005088 <__pop_int+0x3c>
9d005070:	24020082 	li	v0,130
9d005074:	24020080 	li	v0,128
9d005078:	50a2004f 	beql	a1,v0,9d0051b8 <__pop_int+0x16c>
9d00507c:	8ce20000 	lw	v0,0(a3)
9d005080:	03e00008 	jr	ra
9d005084:	00001025 	move	v0,zero
9d005088:	50a2003a 	beql	a1,v0,9d005174 <__pop_int+0x128>
9d00508c:	8ce20000 	lw	v0,0(a3)
9d005090:	24020084 	li	v0,132
9d005094:	14a2fffa 	bne	a1,v0,9d005080 <__pop_int+0x34>
9d005098:	00000000 	nop
9d00509c:	8ce20000 	lw	v0,0(a3)
9d0050a0:	24430004 	addiu	v1,v0,4
9d0050a4:	8c420000 	lw	v0,0(v0)
9d0050a8:	10c00026 	beqz	a2,9d005144 <__pop_int+0xf8>
9d0050ac:	ace30000 	sw	v1,0(a3)
9d0050b0:	7c021620 	seh	v0,v0
9d0050b4:	ac820000 	sw	v0,0(a0)
9d0050b8:	000217c3 	sra	v0,v0,0x1f
9d0050bc:	ac820004 	sw	v0,4(a0)
9d0050c0:	03e00008 	jr	ra
9d0050c4:	24020001 	li	v0,1
9d0050c8:	50a20036 	beql	a1,v0,9d0051a4 <__pop_int+0x158>
9d0050cc:	8ce20000 	lw	v0,0(a3)
9d0050d0:	28a200a1 	slti	v0,a1,161
9d0050d4:	10400011 	beqz	v0,9d00511c <__pop_int+0xd0>
9d0050d8:	240200c0 	li	v0,192
9d0050dc:	24020090 	li	v0,144
9d0050e0:	14a2ffe7 	bne	a1,v0,9d005080 <__pop_int+0x34>
9d0050e4:	00000000 	nop
9d0050e8:	8ce20000 	lw	v0,0(a3)
9d0050ec:	24420007 	addiu	v0,v0,7
9d0050f0:	7c021004 	ins	v0,zero,0x0,0x3
9d0050f4:	8c480000 	lw	t0,0(v0)
9d0050f8:	8c490004 	lw	t1,4(v0)
9d0050fc:	24420008 	addiu	v0,v0,8
9d005100:	ace20000 	sw	v0,0(a3)
9d005104:	ac880000 	sw	t0,0(a0)
9d005108:	ac890004 	sw	t1,4(a0)
9d00510c:	10c00001 	beqz	a2,9d005114 <__pop_int+0xc8>
9d005110:	24020001 	li	v0,1
9d005114:	03e00008 	jr	ra
9d005118:	00000000 	nop
9d00511c:	50a20005 	beql	a1,v0,9d005134 <__pop_int+0xe8>
9d005120:	8ce20000 	lw	v0,0(a3)
9d005124:	240200f0 	li	v0,240
9d005128:	14a2ffd5 	bne	a1,v0,9d005080 <__pop_int+0x34>
9d00512c:	00000000 	nop
9d005130:	8ce20000 	lw	v0,0(a3)
9d005134:	24430004 	addiu	v1,v0,4
9d005138:	ace30000 	sw	v1,0(a3)
9d00513c:	10000002 	b	9d005148 <__pop_int+0xfc>
9d005140:	8c420000 	lw	v0,0(v0)
9d005144:	3042ffff 	andi	v0,v0,0xffff
9d005148:	10000020 	b	9d0051cc <__pop_int+0x180>
9d00514c:	ac820000 	sw	v0,0(a0)
9d005150:	8ce20000 	lw	v0,0(a3)
9d005154:	24430004 	addiu	v1,v0,4
9d005158:	8c420000 	lw	v0,0(v0)
9d00515c:	10c00003 	beqz	a2,9d00516c <__pop_int+0x120>
9d005160:	ace30000 	sw	v1,0(a3)
9d005164:	1000ffd3 	b	9d0050b4 <__pop_int+0x68>
9d005168:	7c021420 	seb	v0,v0
9d00516c:	1000fff6 	b	9d005148 <__pop_int+0xfc>
9d005170:	304200ff 	andi	v0,v0,0xff
9d005174:	24420007 	addiu	v0,v0,7
9d005178:	7c021004 	ins	v0,zero,0x0,0x3
9d00517c:	8c480000 	lw	t0,0(v0)
9d005180:	8c490004 	lw	t1,4(v0)
9d005184:	24420008 	addiu	v0,v0,8
9d005188:	ace20000 	sw	v0,0(a3)
9d00518c:	ac880000 	sw	t0,0(a0)
9d005190:	ac890004 	sw	t1,4(a0)
9d005194:	10c0ffdf 	beqz	a2,9d005114 <__pop_int+0xc8>
9d005198:	24020001 	li	v0,1
9d00519c:	03e00008 	jr	ra
9d0051a0:	00000000 	nop
9d0051a4:	24430004 	addiu	v1,v0,4
9d0051a8:	ace30000 	sw	v1,0(a3)
9d0051ac:	1000ffc1 	b	9d0050b4 <__pop_int+0x68>
9d0051b0:	8c420000 	lw	v0,0(v0)
9d0051b4:	8ce20000 	lw	v0,0(a3)
9d0051b8:	24430004 	addiu	v1,v0,4
9d0051bc:	ace30000 	sw	v1,0(a3)
9d0051c0:	8c420000 	lw	v0,0(v0)
9d0051c4:	14c0ffbc 	bnez	a2,9d0050b8 <__pop_int+0x6c>
9d0051c8:	ac820000 	sw	v0,0(a0)
9d0051cc:	1000ffbc 	b	9d0050c0 <__pop_int+0x74>
9d0051d0:	ac800004 	sw	zero,4(a0)

Disassembly of section .text.dpcmp:

9d0051d4 <__eqdf2>:
9d0051d4:	2409fffe 00055040 00075840 01645825     ...$@P..@X..%Xd.
9d0051e4:	01665825 014b5025 15400003 00000000     %Xf.%PK...@.....
9d0051f4:	1000003c 24020000                       <......$

9d0051fc <i56>:
9d0051fc:	10800002 	beqz	a0,9d005208 <i57>
9d005200:	00054040 	sll	t0,a1,0x1
9d005204:	25080001 	addiu	t0,t0,1

9d005208 <i57>:
9d005208:	3c01ffe0 	lui	at,0xffe0
9d00520c:	34210001 	ori	at,at,0x1
9d005210:	0101082b 	sltu	at,t0,at
9d005214:	10200037 	beqz	at,9d0052f4 <Lnan>
9d005218:	00000000 	nop
9d00521c:	10c00002 	beqz	a2,9d005228 <i58>
9d005220:	00074040 	sll	t0,a3,0x1
9d005224:	25080001 	addiu	t0,t0,1

9d005228 <i58>:
9d005228:	3c01ffe0 	lui	at,0xffe0
9d00522c:	34210001 	ori	at,at,0x1
9d005230:	0101082b 	sltu	at,t0,at
9d005234:	1020002f 	beqz	at,9d0052f4 <Lnan>
9d005238:	00000000 	nop
9d00523c:	04a10016 	bgez	a1,9d005298 <i59>
9d005240:	00000000 	nop
9d005244:	04e00003 	bltz	a3,9d005254 <i60>
9d005248:	00000000 	nop
9d00524c:	10000026 	b	9d0052e8 <L999>
9d005250:	2402ffff 	li	v0,-1

9d005254 <i60>:
9d005254:	0086502b 	sltu	t2,a0,a2
9d005258:	00862023 	subu	a0,a0,a2
9d00525c:	00aa582b 	sltu	t3,a1,t2
9d005260:	00aa2823 	subu	a1,a1,t2
9d005264:	00a7502b 	sltu	t2,a1,a3
9d005268:	014b5025 	or	t2,t2,t3
9d00526c:	11400003 	beqz	t2,9d00527c <i61>
9d005270:	00a72823 	subu	a1,a1,a3
9d005274:	1000001c 	b	9d0052e8 <L999>
9d005278:	24020001 	li	v0,1

9d00527c <i61>:
9d00527c:	00a45025 	or	t2,a1,a0
9d005280:	11400003 	beqz	t2,9d005290 <i62>
9d005284:	00000000 	nop
9d005288:	10000017 	b	9d0052e8 <L999>
9d00528c:	2402ffff 	li	v0,-1

9d005290 <i62>:
9d005290:	10000015 	b	9d0052e8 <L999>
9d005294:	24020000 	li	v0,0

9d005298 <i59>:
9d005298:	04e10003 	bgez	a3,9d0052a8 <i63>
9d00529c:	00000000 	nop
9d0052a0:	10000011 	b	9d0052e8 <L999>
9d0052a4:	24020001 	li	v0,1

9d0052a8 <i63>:
9d0052a8:	0086502b 	sltu	t2,a0,a2
9d0052ac:	00862023 	subu	a0,a0,a2
9d0052b0:	00aa582b 	sltu	t3,a1,t2
9d0052b4:	00aa2823 	subu	a1,a1,t2
9d0052b8:	00a7502b 	sltu	t2,a1,a3
9d0052bc:	014b5025 	or	t2,t2,t3
9d0052c0:	11400003 	beqz	t2,9d0052d0 <i64>
9d0052c4:	00a72823 	subu	a1,a1,a3
9d0052c8:	10000007 	b	9d0052e8 <L999>
9d0052cc:	2402ffff 	li	v0,-1

9d0052d0 <i64>:
9d0052d0:	00a45025 	or	t2,a1,a0
9d0052d4:	11400003 	beqz	t2,9d0052e4 <i65>
9d0052d8:	00000000 	nop
9d0052dc:	10000002 	b	9d0052e8 <L999>
9d0052e0:	24020001 	li	v0,1

9d0052e4 <i65>:
9d0052e4:	24020000 	li	v0,0

9d0052e8 <L999>:
9d0052e8:	03e00008 	jr	ra
9d0052ec:	00000000 	nop
9d0052f0:	00000000 	nop

9d0052f4 <Lnan>:
9d0052f4:	1000fffc 	b	9d0052e8 <L999>
9d0052f8:	00091025 	or	v0,zero,t1
9d0052fc:	00000000 	nop

Disassembly of section .text.dfcmplt:

9d005300 <dpcmplt>:
9d005300:	2409fffe 	li	t1,-2
9d005304:	00055040 	sll	t2,a1,0x1
9d005308:	00075840 	sll	t3,a3,0x1
9d00530c:	01645825 	or	t3,t3,a0
9d005310:	01665825 	or	t3,t3,a2
9d005314:	014b5025 	or	t2,t2,t3
9d005318:	15400003 	bnez	t2,9d005328 <dpcmplt+0x28>
9d00531c:	00000000 	nop
9d005320:	1000003c 	b	9d005414 <dpcmplt+0x114>
9d005324:	24020000 	li	v0,0
9d005328:	10800002 	beqz	a0,9d005334 <dpcmplt+0x34>
9d00532c:	00054040 	sll	t0,a1,0x1
9d005330:	25080001 	addiu	t0,t0,1
9d005334:	3c01ffe0 	lui	at,0xffe0
9d005338:	34210001 	ori	at,at,0x1
9d00533c:	0101082b 	sltu	at,t0,at
9d005340:	10200037 	beqz	at,9d005420 <dpcmplt+0x120>
9d005344:	00000000 	nop
9d005348:	10c00002 	beqz	a2,9d005354 <dpcmplt+0x54>
9d00534c:	00074040 	sll	t0,a3,0x1
9d005350:	25080001 	addiu	t0,t0,1
9d005354:	3c01ffe0 	lui	at,0xffe0
9d005358:	34210001 	ori	at,at,0x1
9d00535c:	0101082b 	sltu	at,t0,at
9d005360:	1020002f 	beqz	at,9d005420 <dpcmplt+0x120>
9d005364:	00000000 	nop
9d005368:	04a10016 	bgez	a1,9d0053c4 <dpcmplt+0xc4>
9d00536c:	00000000 	nop
9d005370:	04e00003 	bltz	a3,9d005380 <dpcmplt+0x80>
9d005374:	00000000 	nop
9d005378:	10000026 	b	9d005414 <dpcmplt+0x114>
9d00537c:	2402ffff 	li	v0,-1
9d005380:	0086502b 	sltu	t2,a0,a2
9d005384:	00862023 	subu	a0,a0,a2
9d005388:	00aa582b 	sltu	t3,a1,t2
9d00538c:	00aa2823 	subu	a1,a1,t2
9d005390:	00a7502b 	sltu	t2,a1,a3
9d005394:	014b5025 	or	t2,t2,t3
9d005398:	11400003 	beqz	t2,9d0053a8 <dpcmplt+0xa8>
9d00539c:	00a72823 	subu	a1,a1,a3
9d0053a0:	1000001c 	b	9d005414 <dpcmplt+0x114>
9d0053a4:	24020001 	li	v0,1
9d0053a8:	00a45025 	or	t2,a1,a0
9d0053ac:	11400003 	beqz	t2,9d0053bc <dpcmplt+0xbc>
9d0053b0:	00000000 	nop
9d0053b4:	10000017 	b	9d005414 <dpcmplt+0x114>
9d0053b8:	2402ffff 	li	v0,-1
9d0053bc:	10000015 	b	9d005414 <dpcmplt+0x114>
9d0053c0:	24020000 	li	v0,0
9d0053c4:	04e10003 	bgez	a3,9d0053d4 <dpcmplt+0xd4>
9d0053c8:	00000000 	nop
9d0053cc:	10000011 	b	9d005414 <dpcmplt+0x114>
9d0053d0:	24020001 	li	v0,1
9d0053d4:	0086502b 	sltu	t2,a0,a2
9d0053d8:	00862023 	subu	a0,a0,a2
9d0053dc:	00aa582b 	sltu	t3,a1,t2
9d0053e0:	00aa2823 	subu	a1,a1,t2
9d0053e4:	00a7502b 	sltu	t2,a1,a3
9d0053e8:	014b5025 	or	t2,t2,t3
9d0053ec:	11400003 	beqz	t2,9d0053fc <dpcmplt+0xfc>
9d0053f0:	00a72823 	subu	a1,a1,a3
9d0053f4:	10000007 	b	9d005414 <dpcmplt+0x114>
9d0053f8:	2402ffff 	li	v0,-1
9d0053fc:	00a45025 	or	t2,a1,a0
9d005400:	11400003 	beqz	t2,9d005410 <dpcmplt+0x110>
9d005404:	00000000 	nop
9d005408:	10000002 	b	9d005414 <dpcmplt+0x114>
9d00540c:	24020001 	li	v0,1
9d005410:	24020000 	li	v0,0
9d005414:	03e00008 	jr	ra
9d005418:	00000000 	nop
9d00541c:	00000000 	nop
9d005420:	1000fffc 	b	9d005414 <dpcmplt+0x114>
9d005424:	34020001 	li	v0,0x1
9d005428:	00000000 	nop

Disassembly of section .text:

9d00542c <dpfloor>:
9d00542c:	3c018000 00a13024 00053840 00073d42     ...<$0..@8..B=..
9d00543c:	240107ff 10e1002b 00000000 24090433     ...$+.......3..$
9d00544c:	01273823 2ce10035 1420000b 00000000     #8'.5..,.. .....
9d00545c:	04e00020 00000000 10c0002d 00000000      .......-.......
9d00546c:	00054840 01244825 15200026 00000000     @H..%H$.&. .....
9d00547c:	10000027 00000000                       '.......

9d005484 <i1>:
9d005484:	10c00005 	beqz	a2,9d00549c <i3>
9d005488:	00000000 	nop
9d00548c:	0004482b 	sltu	t1,zero,a0
9d005490:	00042023 	negu	a0,a0
9d005494:	00052823 	negu	a1,a1
9d005498:	00a92823 	subu	a1,a1,t1

9d00549c <i3>:
9d00549c:	30e9001f 	andi	t1,a3,0x1f
9d0054a0:	24080001 	li	t0,1
9d0054a4:	01284004 	sllv	t0,t0,t1
9d0054a8:	00084023 	negu	t0,t0
9d0054ac:	2ce10020 	sltiu	at,a3,32
9d0054b0:	14200004 	bnez	at,9d0054c4 <i4>
9d0054b4:	00000000 	nop
9d0054b8:	24040000 	li	a0,0
9d0054bc:	10000002 	b	9d0054c8 <e4>
9d0054c0:	00a82824 	and	a1,a1,t0

9d0054c4 <i4>:
9d0054c4:	00882024 	and	a0,a0,t0

9d0054c8 <e4>:
9d0054c8:	10c00005 	beqz	a2,9d0054e0 <Aret>
9d0054cc:	00000000 	nop
9d0054d0:	0004482b 	sltu	t1,zero,a0
9d0054d4:	00042023 	negu	a0,a0
9d0054d8:	00052823 	negu	a1,a1
9d0054dc:	00a92823 	subu	a1,a1,t1

9d0054e0 <Aret>:
9d0054e0:	00041025 	or	v0,zero,a0
9d0054e4:	00051825 	or	v1,zero,a1

9d0054e8 <A999>:
9d0054e8:	03e00008 	jr	ra
9d0054ec:	00000000 	nop

9d0054f0 <Aspec>:
9d0054f0:	3c01000f 	lui	at,0xf
9d0054f4:	3421ffff 	ori	at,at,0xffff
9d0054f8:	00a14824 	and	t1,a1,at
9d0054fc:	01244825 	or	t1,t1,a0
9d005500:	15200009 	bnez	t1,9d005528 <Anan>
9d005504:	00000000 	nop
9d005508:	1000fff5 	b	9d0054e0 <Aret>
9d00550c:	00000000 	nop

9d005510 <Amin1>:
9d005510:	3c05bff0 	lui	a1,0xbff0
9d005514:	1000fff2 	b	9d0054e0 <Aret>
9d005518:	24040000 	li	a0,0

9d00551c <Azer>:
9d00551c:	00062825 	or	a1,zero,a2
9d005520:	1000ffef 	b	9d0054e0 <Aret>
9d005524:	24040000 	li	a0,0

9d005528 <Anan>:
9d005528:	3c05fff8 	lui	a1,0xfff8
9d00552c:	1000ffec 	b	9d0054e0 <Aret>
9d005530:	24040000 	li	a0,0

Disassembly of section .text.__pad:

9d005534 <__pad>:
9d005534:	27bdffc0 	addiu	sp,sp,-64
9d005538:	afb40030 	sw	s4,48(sp)
9d00553c:	8fb40050 	lw	s4,80(sp)
9d005540:	afb50034 	sw	s5,52(sp)
9d005544:	afb3002c 	sw	s3,44(sp)
9d005548:	32940001 	andi	s4,s4,0x1
9d00554c:	afb20028 	sw	s2,40(sp)
9d005550:	afb10024 	sw	s1,36(sp)
9d005554:	afb00020 	sw	s0,32(sp)
9d005558:	afbf003c 	sw	ra,60(sp)
9d00555c:	afb60038 	sw	s6,56(sp)
9d005560:	00809825 	move	s3,a0
9d005564:	00a0a825 	move	s5,a1
9d005568:	00c08825 	move	s1,a2
9d00556c:	00e09025 	move	s2,a3
9d005570:	16800024 	bnez	s4,9d005604 <__pad+0xd0>
9d005574:	00c7802a 	slt	s0,a2,a3
9d005578:	12000023 	beqz	s0,9d005608 <__pad+0xd4>
9d00557c:	02203025 	move	a2,s1
9d005580:	02518023 	subu	s0,s2,s1
9d005584:	2e060011 	sltiu	a2,s0,17
9d005588:	24020010 	li	v0,16
9d00558c:	0206100b 	movn	v0,s0,a2
9d005590:	00403025 	move	a2,v0
9d005594:	24050020 	li	a1,32
9d005598:	27a40010 	addiu	a0,sp,16
9d00559c:	0f401892 	jal	9d006248 <memset>
9d0055a0:	0200b025 	move	s6,s0
9d0055a4:	2a020010 	slti	v0,s0,16
9d0055a8:	1040001e 	beqz	v0,9d005624 <__pad+0xf0>
9d0055ac:	24060010 	li	a2,16
9d0055b0:	32c6000f 	andi	a2,s6,0xf
9d0055b4:	27a50010 	addiu	a1,sp,16
9d0055b8:	0f40178c 	jal	9d005e30 <__out>
9d0055bc:	02602025 	move	a0,s3
9d0055c0:	16800006 	bnez	s4,9d0055dc <__pad+0xa8>
9d0055c4:	8fbf003c 	lw	ra,60(sp)
9d0055c8:	02203025 	move	a2,s1
9d0055cc:	02a02825 	move	a1,s5
9d0055d0:	0f40178c 	jal	9d005e30 <__out>
9d0055d4:	02602025 	move	a0,s3
9d0055d8:	8fbf003c 	lw	ra,60(sp)
9d0055dc:	02401025 	move	v0,s2
9d0055e0:	8fb60038 	lw	s6,56(sp)
9d0055e4:	8fb50034 	lw	s5,52(sp)
9d0055e8:	8fb40030 	lw	s4,48(sp)
9d0055ec:	8fb3002c 	lw	s3,44(sp)
9d0055f0:	8fb20028 	lw	s2,40(sp)
9d0055f4:	8fb10024 	lw	s1,36(sp)
9d0055f8:	8fb00020 	lw	s0,32(sp)
9d0055fc:	03e00008 	jr	ra
9d005600:	27bd0040 	addiu	sp,sp,64
9d005604:	02203025 	move	a2,s1
9d005608:	02a02825 	move	a1,s5
9d00560c:	0f40178c 	jal	9d005e30 <__out>
9d005610:	02602025 	move	a0,s3
9d005614:	1600ffdb 	bnez	s0,9d005584 <__pad+0x50>
9d005618:	02518023 	subu	s0,s2,s1
9d00561c:	1000ffee 	b	9d0055d8 <__pad+0xa4>
9d005620:	02209025 	move	s2,s1
9d005624:	27a50010 	addiu	a1,sp,16
9d005628:	0f40178c 	jal	9d005e30 <__out>
9d00562c:	02602025 	move	a0,s3
9d005630:	1000ffdc 	b	9d0055a4 <__pad+0x70>
9d005634:	2610fff0 	addiu	s0,s0,-16

Disassembly of section .text.dptofp:

9d005638 <__truncdfsf2>:
9d005638:	00053ac0 00045d42 00eb3825 000432c0     .:..B]..%8...2..
9d005648:	3c018000 00e13825 3c018000 00a14824     ...<%8.....<$H..
9d005658:	00054040 00084542 2508fc80 250bffff     @@..BE.....%...%
9d005668:	2d6100fe 10200012 00000000              ..a-.. .....

9d005674 <Hlab1>:
9d005674:	10c00002 	beqz	a2,9d005680 <i45>
9d005678:	00000000 	nop
9d00567c:	34e70001 	ori	a3,a3,0x1

9d005680 <i45>:
9d005680:	24e70080 	addiu	a3,a3,128
9d005684:	2ceb0080 	sltiu	t3,a3,128
9d005688:	010b4021 	addu	t0,t0,t3
9d00568c:	00075a02 	srl	t3,a3,0x8
9d005690:	316b0001 	andi	t3,t3,0x1
9d005694:	00eb3823 	subu	a3,a3,t3
9d005698:	00073840 	sll	a3,a3,0x1
9d00569c:	00073a42 	srl	a3,a3,0x9
9d0056a0:	00085dc0 	sll	t3,t0,0x17
9d0056a4:	00eb3825 	or	a3,a3,t3
9d0056a8:	00e91025 	or	v0,a3,t1

9d0056ac <H999>:
9d0056ac:	03e00008 	jr	ra
9d0056b0:	00000000 	nop
9d0056b4:	00000000 	nop

9d0056b8 <Hspec>:
9d0056b8:	2401047f 	li	at,1151
9d0056bc:	15010007 	bne	t0,at,9d0056dc <i46>
9d0056c0:	00000000 	nop
9d0056c4:	00075840 	sll	t3,a3,0x1
9d0056c8:	01665825 	or	t3,t3,a2
9d0056cc:	11600003 	beqz	t3,9d0056dc <i46>
9d0056d0:	00000000 	nop
9d0056d4:	1000fff5 	b	9d0056ac <H999>
9d0056d8:	3c02ffc0 	lui	v0,0xffc0

9d0056dc <i46>:
9d0056dc:	290100ff 	slti	at,t0,255
9d0056e0:	14200004 	bnez	at,9d0056f4 <i48>
9d0056e4:	00000000 	nop
9d0056e8:	3c017f80 	lui	at,0x7f80
9d0056ec:	1000ffef 	b	9d0056ac <H999>
9d0056f0:	01211025 	or	v0,t1,at

9d0056f4 <i48>:
9d0056f4:	240a0001 	li	t2,1
9d0056f8:	01485023 	subu	t2,t2,t0
9d0056fc:	2d410020 	sltiu	at,t2,32
9d005700:	14200003 	bnez	at,9d005710 <i49>
9d005704:	00000000 	nop
9d005708:	1000ffe8 	b	9d0056ac <H999>
9d00570c:	00091025 	or	v0,zero,t1

9d005710 <i49>:
9d005710:	240c0020 	li	t4,32
9d005714:	018a6023 	subu	t4,t4,t2
9d005718:	01875804 	sllv	t3,a3,t4
9d00571c:	00cb3025 	or	a2,a2,t3
9d005720:	01473806 	srlv	a3,a3,t2
9d005724:	24080000 	li	t0,0
9d005728:	3c018000 	lui	at,0x8000
9d00572c:	1000ffd1 	b	9d005674 <Hlab1>
9d005730:	00e13825 	or	a3,a3,at
9d005734:	00000000 	nop

Disassembly of section .text.scalbn:

9d005738 <scalbn>:
9d005738:	27bdffe0 	addiu	sp,sp,-32
9d00573c:	afb10014 	sw	s1,20(sp)
9d005740:	00c08825 	move	s1,a2
9d005744:	28c60400 	slti	a2,a2,1024
9d005748:	afbf001c 	sw	ra,28(sp)
9d00574c:	afb20018 	sw	s2,24(sp)
9d005750:	14c00020 	bnez	a2,9d0057d4 <scalbn+0x9c>
9d005754:	afb00010 	sw	s0,16(sp)
9d005758:	3c129d00 	lui	s2,0x9d00
9d00575c:	8e461ef0 	lw	a2,7920(s2)
9d005760:	8e471ef4 	lw	a3,7924(s2)
9d005764:	0f401087 	jal	9d00421c <__muldf3>
9d005768:	2630fc01 	addiu	s0,s1,-1023
9d00576c:	2a040400 	slti	a0,s0,1024
9d005770:	5480000b 	bnezl	a0,9d0057a0 <scalbn+0x68>
9d005774:	261003ff 	addiu	s0,s0,1023
9d005778:	8e461ef0 	lw	a2,7920(s2)
9d00577c:	8e471ef4 	lw	a3,7924(s2)
9d005780:	00402025 	move	a0,v0
9d005784:	00602825 	move	a1,v1
9d005788:	0f401087 	jal	9d00421c <__muldf3>
9d00578c:	2630f802 	addiu	s0,s1,-2046
9d005790:	2a050400 	slti	a1,s0,1024
9d005794:	240403ff 	li	a0,1023
9d005798:	0085800a 	movz	s0,a0,a1
9d00579c:	261003ff 	addiu	s0,s0,1023
9d0057a0:	00102500 	sll	a0,s0,0x14
9d0057a4:	00002825 	move	a1,zero
9d0057a8:	00a03025 	move	a2,a1
9d0057ac:	00803825 	move	a3,a0
9d0057b0:	00602825 	move	a1,v1
9d0057b4:	0f401087 	jal	9d00421c <__muldf3>
9d0057b8:	00402025 	move	a0,v0
9d0057bc:	8fbf001c 	lw	ra,28(sp)
9d0057c0:	8fb20018 	lw	s2,24(sp)
9d0057c4:	8fb10014 	lw	s1,20(sp)
9d0057c8:	8fb00010 	lw	s0,16(sp)
9d0057cc:	03e00008 	jr	ra
9d0057d0:	27bd0020 	addiu	sp,sp,32
9d0057d4:	2a26fc02 	slti	a2,s1,-1022
9d0057d8:	00801025 	move	v0,a0
9d0057dc:	00a01825 	move	v1,a1
9d0057e0:	10c0ffee 	beqz	a2,9d00579c <scalbn+0x64>
9d0057e4:	02208025 	move	s0,s1
9d0057e8:	3c129d00 	lui	s2,0x9d00
9d0057ec:	8e461ef8 	lw	a2,7928(s2)
9d0057f0:	8e471efc 	lw	a3,7932(s2)
9d0057f4:	0f401087 	jal	9d00421c <__muldf3>
9d0057f8:	263003c9 	addiu	s0,s1,969
9d0057fc:	2a04fc02 	slti	a0,s0,-1022
9d005800:	5080ffe7 	beqzl	a0,9d0057a0 <scalbn+0x68>
9d005804:	261003ff 	addiu	s0,s0,1023
9d005808:	8e461ef8 	lw	a2,7928(s2)
9d00580c:	8e471efc 	lw	a3,7932(s2)
9d005810:	00402025 	move	a0,v0
9d005814:	00602825 	move	a1,v1
9d005818:	0f401087 	jal	9d00421c <__muldf3>
9d00581c:	26300792 	addiu	s0,s1,1938
9d005820:	2a05fc02 	slti	a1,s0,-1022
9d005824:	2404fc02 	li	a0,-1022
9d005828:	1000ffdc 	b	9d00579c <scalbn+0x64>
9d00582c:	0085800b 	movn	s0,a0,a1

Disassembly of section .text.__pop_ptr:

9d005830 <__pop_ptr>:
9d005830:	24020084 	li	v0,132
9d005834:	50a20022 	beql	a1,v0,9d0058c0 <__pop_ptr+0x90>
9d005838:	8ce20000 	lw	v0,0(a3)
9d00583c:	28a20085 	slti	v0,a1,133
9d005840:	10400011 	beqz	v0,9d005888 <__pop_ptr+0x58>
9d005844:	24020090 	li	v0,144
9d005848:	24020081 	li	v0,129
9d00584c:	50a20008 	beql	a1,v0,9d005870 <__pop_ptr+0x40>
9d005850:	8ce20000 	lw	v0,0(a3)
9d005854:	24020082 	li	v0,130
9d005858:	50a20026 	beql	a1,v0,9d0058f4 <__pop_ptr+0xc4>
9d00585c:	8ce20000 	lw	v0,0(a3)
9d005860:	24020080 	li	v0,128
9d005864:	14a20010 	bne	a1,v0,9d0058a8 <__pop_ptr+0x78>
9d005868:	00000000 	nop
9d00586c:	8ce20000 	lw	v0,0(a3)
9d005870:	24430004 	addiu	v1,v0,4
9d005874:	ace30000 	sw	v1,0(a3)
9d005878:	8c420000 	lw	v0,0(v0)
9d00587c:	ac820000 	sw	v0,0(a0)
9d005880:	10000014 	b	9d0058d4 <__pop_ptr+0xa4>
9d005884:	ac460000 	sw	a2,0(v0)
9d005888:	50a2001a 	beql	a1,v0,9d0058f4 <__pop_ptr+0xc4>
9d00588c:	8ce20000 	lw	v0,0(a3)
9d005890:	28a20091 	slti	v0,a1,145
9d005894:	10400006 	beqz	v0,9d0058b0 <__pop_ptr+0x80>
9d005898:	240200a0 	li	v0,160
9d00589c:	24020088 	li	v0,136
9d0058a0:	50a2000e 	beql	a1,v0,9d0058dc <__pop_ptr+0xac>
9d0058a4:	8ce20000 	lw	v0,0(a3)
9d0058a8:	03e00008 	jr	ra
9d0058ac:	00001025 	move	v0,zero
9d0058b0:	50a2ffef 	beql	a1,v0,9d005870 <__pop_ptr+0x40>
9d0058b4:	8ce20000 	lw	v0,0(a3)
9d0058b8:	1000ffea 	b	9d005864 <__pop_ptr+0x34>
9d0058bc:	240200c0 	li	v0,192
9d0058c0:	24430004 	addiu	v1,v0,4
9d0058c4:	ace30000 	sw	v1,0(a3)
9d0058c8:	8c420000 	lw	v0,0(v0)
9d0058cc:	ac820000 	sw	v0,0(a0)
9d0058d0:	a4460000 	sh	a2,0(v0)
9d0058d4:	03e00008 	jr	ra
9d0058d8:	24020001 	li	v0,1
9d0058dc:	24430004 	addiu	v1,v0,4
9d0058e0:	ace30000 	sw	v1,0(a3)
9d0058e4:	8c420000 	lw	v0,0(v0)
9d0058e8:	ac820000 	sw	v0,0(a0)
9d0058ec:	1000fff9 	b	9d0058d4 <__pop_ptr+0xa4>
9d0058f0:	a0460000 	sb	a2,0(v0)
9d0058f4:	24430004 	addiu	v1,v0,4
9d0058f8:	ace30000 	sw	v1,0(a3)
9d0058fc:	8c420000 	lw	v0,0(v0)
9d005900:	ac820000 	sw	v0,0(a0)
9d005904:	ac460000 	sw	a2,0(v0)
9d005908:	000637c3 	sra	a2,a2,0x1f
9d00590c:	1000fff1 	b	9d0058d4 <__pop_ptr+0xa4>
9d005910:	ac460004 	sw	a2,4(v0)

Disassembly of section .text.general_exception:

9d005914 <_general_exception_context>:
9d005914:	27bdffa8 	addiu	sp,sp,-88
9d005918:	afa10004 	sw	at,4(sp)
9d00591c:	afa20008 	sw	v0,8(sp)
9d005920:	afa3000c 	sw	v1,12(sp)
9d005924:	afa40010 	sw	a0,16(sp)
9d005928:	afa50014 	sw	a1,20(sp)
9d00592c:	afa60018 	sw	a2,24(sp)
9d005930:	afa7001c 	sw	a3,28(sp)
9d005934:	afa80020 	sw	t0,32(sp)
9d005938:	afa90024 	sw	t1,36(sp)
9d00593c:	afaa0028 	sw	t2,40(sp)
9d005940:	afab002c 	sw	t3,44(sp)
9d005944:	afac0030 	sw	t4,48(sp)
9d005948:	afad0034 	sw	t5,52(sp)
9d00594c:	afae0038 	sw	t6,56(sp)
9d005950:	afaf003c 	sw	t7,60(sp)
9d005954:	afb80040 	sw	t8,64(sp)
9d005958:	afb90044 	sw	t9,68(sp)
9d00595c:	afbf0048 	sw	ra,72(sp)
9d005960:	00004012 	mflo	t0
9d005964:	afa8004c 	sw	t0,76(sp)
9d005968:	00004010 	mfhi	t0
9d00596c:	afa80050 	sw	t0,80(sp)
9d005970:	3c1a9d00 	lui	k0,0x9d00
9d005974:	275a601c 	addiu	k0,k0,24604
9d005978:	00000000 	nop
9d00597c:	40046800 	mfc0	a0,c0_cause
9d005980:	40056000 	mfc0	a1,c0_status
9d005984:	0340f809 	jalr	k0
9d005988:	00000000 	nop
9d00598c:	8fa80050 	lw	t0,80(sp)
9d005990:	01000011 	mthi	t0
9d005994:	8fa8004c 	lw	t0,76(sp)
9d005998:	01000013 	mtlo	t0
9d00599c:	8fa10004 	lw	at,4(sp)
9d0059a0:	8fa20008 	lw	v0,8(sp)
9d0059a4:	8fa3000c 	lw	v1,12(sp)
9d0059a8:	8fa40010 	lw	a0,16(sp)
9d0059ac:	8fa50014 	lw	a1,20(sp)
9d0059b0:	8fa60018 	lw	a2,24(sp)
9d0059b4:	8fa7001c 	lw	a3,28(sp)
9d0059b8:	8fa80020 	lw	t0,32(sp)
9d0059bc:	8fa90024 	lw	t1,36(sp)
9d0059c0:	8faa0028 	lw	t2,40(sp)
9d0059c4:	8fab002c 	lw	t3,44(sp)
9d0059c8:	8fac0030 	lw	t4,48(sp)
9d0059cc:	8fad0034 	lw	t5,52(sp)
9d0059d0:	8fae0038 	lw	t6,56(sp)
9d0059d4:	8faf003c 	lw	t7,60(sp)
9d0059d8:	8fb80040 	lw	t8,64(sp)
9d0059dc:	8fb90044 	lw	t9,68(sp)
9d0059e0:	8fbf0048 	lw	ra,72(sp)
9d0059e4:	27bd0058 	addiu	sp,sp,88
9d0059e8:	000000c0 	ehb
9d0059ec:	42000018 	eret

Disassembly of section .text.fptodp:

9d0059f0 <__extendsfdf2>:
9d0059f0:	00043dc2 30e700ff 3c018000 00813024     .=.....0...<$0..
9d005a00:	24e9ffff 2d2100fe 1020000d 00000000     ...$..!-.. .....

9d005a10 <Glab1>:
9d005a10:	24e70380 	addiu	a3,a3,896
9d005a14:	00044a40 	sll	t1,a0,0x9
9d005a18:	00094b02 	srl	t1,t1,0xc
9d005a1c:	00c93025 	or	a2,a2,t1
9d005a20:	00042f40 	sll	a1,a0,0x1d

9d005a24 <Gret>:
9d005a24:	00074d00 	sll	t1,a3,0x14
9d005a28:	00c93025 	or	a2,a2,t1
9d005a2c:	00051025 	or	v0,zero,a1
9d005a30:	00061825 	or	v1,zero,a2

9d005a34 <G999>:
9d005a34:	03e00008 	jr	ra
9d005a38:	00000000 	nop
9d005a3c:	00000000 	nop

9d005a40 <Gspec>:
9d005a40:	24050000 	li	a1,0
9d005a44:	00842021 	addu	a0,a0,a0
9d005a48:	1080fff6 	beqz	a0,9d005a24 <Gret>
9d005a4c:	00000000 	nop
9d005a50:	14e00009 	bnez	a3,9d005a78 <i42>
9d005a54:	00000000 	nop

9d005a58 <b43>:
9d005a58:	24e7ffff 	addiu	a3,a3,-1
9d005a5c:	00842021 	addu	a0,a0,a0
9d005a60:	3c010080 	lui	at,0x80
9d005a64:	0081082b 	sltu	at,a0,at
9d005a68:	1420fffb 	bnez	at,9d005a58 <b43>
9d005a6c:	00000000 	nop
9d005a70:	1000ffe7 	b	9d005a10 <Glab1>
9d005a74:	00000000 	nop

9d005a78 <i42>:
9d005a78:	240707ff 	li	a3,2047
9d005a7c:	3c01ff00 	lui	at,0xff00
9d005a80:	34210001 	ori	at,at,0x1
9d005a84:	0081082b 	sltu	at,a0,at
9d005a88:	1420ffe6 	bnez	at,9d005a24 <Gret>
9d005a8c:	00000000 	nop
9d005a90:	1000ffe4 	b	9d005a24 <Gret>
9d005a94:	3c06fff8 	lui	a2,0xfff8
9d005a98:	00000000 	nop

Disassembly of section .text.normalize:

9d005a9c <normalize>:
9d005a9c:	27bdffe0 	addiu	sp,sp,-32
9d005aa0:	afb00014 	sw	s0,20(sp)
9d005aa4:	00808025 	move	s0,a0
9d005aa8:	00072502 	srl	a0,a3,0x14
9d005aac:	afb10018 	sw	s1,24(sp)
9d005ab0:	30910800 	andi	s1,a0,0x800
9d005ab4:	308407ff 	andi	a0,a0,0x7ff
9d005ab8:	afbf001c 	sw	ra,28(sp)
9d005abc:	00c01025 	move	v0,a2
9d005ac0:	1480000e 	bnez	a0,9d005afc <normalize+0x60>
9d005ac4:	00e02825 	move	a1,a3
9d005ac8:	3c029d00 	lui	v0,0x9d00
9d005acc:	00c04025 	move	t0,a2
9d005ad0:	00e01825 	move	v1,a3
9d005ad4:	8c461ed0 	lw	a2,7888(v0)
9d005ad8:	8c471ed4 	lw	a3,7892(v0)
9d005adc:	01002025 	move	a0,t0
9d005ae0:	0f401087 	jal	9d00421c <__muldf3>
9d005ae4:	00602825 	move	a1,v1
9d005ae8:	00602825 	move	a1,v1
9d005aec:	7c635500 	ext	v1,v1,0x14,0xb
9d005af0:	10600002 	beqz	v1,9d005afc <normalize+0x60>
9d005af4:	24040800 	li	a0,2048
9d005af8:	2464ffc1 	addiu	a0,v1,-63
9d005afc:	000237c2 	srl	a2,v0,0x1f
9d005b00:	00051840 	sll	v1,a1,0x1
9d005b04:	00021040 	sll	v0,v0,0x1
9d005b08:	00c31825 	or	v1,a2,v1
9d005b0c:	8fbf001c 	lw	ra,28(sp)
9d005b10:	ae020000 	sw	v0,0(s0)
9d005b14:	7c63a000 	ext	v1,v1,0x0,0x15
9d005b18:	3c020020 	lui	v0,0x20
9d005b1c:	00431825 	or	v1,v0,v1
9d005b20:	2484fbcc 	addiu	a0,a0,-1076
9d005b24:	ae11000c 	sw	s1,12(s0)
9d005b28:	02001025 	move	v0,s0
9d005b2c:	ae030004 	sw	v1,4(s0)
9d005b30:	ae040008 	sw	a0,8(s0)
9d005b34:	8fb10018 	lw	s1,24(sp)
9d005b38:	8fb00014 	lw	s0,20(sp)
9d005b3c:	03e00008 	jr	ra
9d005b40:	27bd0020 	addiu	sp,sp,32

Disassembly of section .text.dptoli:

9d005b44 <__fixdfsi>:
9d005b44:	00053ac0 00045542 00ea3825 3c018000     .:..BU..%8.....<
9d005b54:	00e13825 00055040 000a5542 2406041e     %8..@P..BU.....$
9d005b64:	00ca3023 18c0000c 00000000 2cc10020     #0.......... ..,
9d005b74:	14200002 00000000 34070000              .. ........4

9d005b80 <L42>:
9d005b80:	04a10002 	bgez	a1,9d005b8c <i50>
9d005b84:	00c73806 	srlv	a3,a3,a2
9d005b88:	00073823 	negu	a3,a3

9d005b8c <i50>:
9d005b8c:	00071025 	or	v0,zero,a3

9d005b90 <I999>:
9d005b90:	03e00008 	jr	ra
9d005b94:	00000000 	nop
9d005b98:	00000000 	nop

9d005b9c <Inaninf>:
9d005b9c:	10800002 	beqz	a0,9d005ba8 <i51>
9d005ba0:	00000000 	nop
9d005ba4:	34a50001 	ori	a1,a1,0x1

9d005ba8 <i51>:
9d005ba8:	3c017ff0 	lui	at,0x7ff0
9d005bac:	34210001 	ori	at,at,0x1
9d005bb0:	00a1082b 	sltu	at,a1,at
9d005bb4:	14200003 	bnez	at,9d005bc4 <i52>
9d005bb8:	00000000 	nop
9d005bbc:	1000fff4 	b	9d005b90 <I999>
9d005bc0:	3c028000 	lui	v0,0x8000

9d005bc4 <i52>:
9d005bc4:	3c027fff 	lui	v0,0x7fff
9d005bc8:	1000fff1 	b	9d005b90 <I999>
9d005bcc:	3442ffff 	ori	v0,v0,0xffff
9d005bd0:	00000000 	nop

Disassembly of section .text:

9d005bd4 <__pic32_data_init>:
9d005bd4:	03e01825 	move	v1,ra

9d005bd8 <_dinit_init>:
9d005bd8:	3c089d00 	lui	t0,0x9d00
9d005bdc:	2508628c 	addiu	t0,t0,25228
9d005be0:	1100001b 	beqz	t0,9d005c50 <_dinit_end+0x18>
9d005be4:	00000000 	nop
9d005be8:	8d090000 	lw	t1,0(t0)
9d005bec:	11200018 	beqz	t1,9d005c50 <_dinit_end+0x18>
9d005bf0:	25080004 	addiu	t0,t0,4
9d005bf4:	8d0a0000 	lw	t2,0(t0)
9d005bf8:	25080004 	addiu	t0,t0,4
9d005bfc:	8d0b0000 	lw	t3,0(t0)
9d005c00:	11600009 	beqz	t3,9d005c28 <_dinit_clear>
9d005c04:	25080004 	addiu	t0,t0,4

9d005c08 <_dinit_copy>:
9d005c08:	910c0000 	lbu	t4,0(t0)
9d005c0c:	254affff 	addiu	t2,t2,-1
9d005c10:	25080001 	addiu	t0,t0,1
9d005c14:	a12c0000 	sb	t4,0(t1)
9d005c18:	1540fffb 	bnez	t2,9d005c08 <_dinit_copy>
9d005c1c:	25290001 	addiu	t1,t1,1
9d005c20:	10000005 	b	9d005c38 <_dinit_end>
9d005c24:	00000000 	nop

9d005c28 <_dinit_clear>:
9d005c28:	a1200000 	sb	zero,0(t1)
9d005c2c:	254affff 	addiu	t2,t2,-1
9d005c30:	1540fffd 	bnez	t2,9d005c28 <_dinit_clear>
9d005c34:	25290001 	addiu	t1,t1,1

9d005c38 <_dinit_end>:
9d005c38:	25080003 	addiu	t0,t0,3
9d005c3c:	240afffc 	li	t2,-4
9d005c40:	01484024 	and	t0,t2,t0
9d005c44:	8d090000 	lw	t1,0(t0)
9d005c48:	1520ffe7 	bnez	t1,9d005be8 <_dinit_init+0x10>
9d005c4c:	00000000 	nop
9d005c50:	0060f825 	move	ra,v1
9d005c54:	03e00008 	jr	ra
9d005c58:	00000000 	nop
9d005c5c:	00000000 	nop

Disassembly of section .text.atoi:

9d005c60 <atoi>:
9d005c60:	24050020 	li	a1,32
9d005c64:	80820000 	lb	v0,0(a0)
9d005c68:	1045000e 	beq	v0,a1,9d005ca4 <atoi+0x44>
9d005c6c:	2443fff7 	addiu	v1,v0,-9
9d005c70:	2c630005 	sltiu	v1,v1,5
9d005c74:	5460fffb 	bnezl	v1,9d005c64 <atoi+0x4>
9d005c78:	24840001 	addiu	a0,a0,1
9d005c7c:	2403002b 	li	v1,43
9d005c80:	1043000a 	beq	v0,v1,9d005cac <atoi+0x4c>
9d005c84:	2403002d 	li	v1,45
9d005c88:	14430003 	bne	v0,v1,9d005c98 <atoi+0x38>
9d005c8c:	00002825 	move	a1,zero
9d005c90:	24050001 	li	a1,1
9d005c94:	24840001 	addiu	a0,a0,1
9d005c98:	00001025 	move	v0,zero
9d005c9c:	10000007 	b	9d005cbc <atoi+0x5c>
9d005ca0:	2407000a 	li	a3,10
9d005ca4:	1000ffef 	b	9d005c64 <atoi+0x4>
9d005ca8:	24840001 	addiu	a0,a0,1
9d005cac:	1000fff9 	b	9d005c94 <atoi+0x34>
9d005cb0:	00002825 	move	a1,zero
9d005cb4:	24840001 	addiu	a0,a0,1
9d005cb8:	00431023 	subu	v0,v0,v1
9d005cbc:	80830000 	lb	v1,0(a0)
9d005cc0:	2463ffd0 	addiu	v1,v1,-48
9d005cc4:	2c66000a 	sltiu	a2,v1,10
9d005cc8:	54c0fffa 	bnezl	a2,9d005cb4 <atoi+0x54>
9d005ccc:	70471002 	mul	v0,v0,a3
9d005cd0:	50a00001 	beqzl	a1,9d005cd8 <atoi+0x78>
9d005cd4:	00021023 	negu	v0,v0
9d005cd8:	03e00008 	jr	ra
9d005cdc:	00000000 	nop

Disassembly of section .text.__vsnprintf:

9d005ce0 <__vsnprintf>:
9d005ce0:	27bdffc8 	addiu	sp,sp,-56
9d005ce4:	2403ffff 	li	v1,-1
9d005ce8:	afa30010 	sw	v1,16(sp)
9d005cec:	24030102 	li	v1,258
9d005cf0:	00a01025 	move	v0,a1
9d005cf4:	afbf0034 	sw	ra,52(sp)
9d005cf8:	00c02825 	move	a1,a2
9d005cfc:	afa30014 	sw	v1,20(sp)
9d005d00:	14800002 	bnez	a0,9d005d0c <__vsnprintf+0x2c>
9d005d04:	00e03025 	move	a2,a3
9d005d08:	27a4002c 	addiu	a0,sp,44
9d005d0c:	afa40018 	sw	a0,24(sp)
9d005d10:	afa2001c 	sw	v0,28(sp)
9d005d14:	10400002 	beqz	v0,9d005d20 <__vsnprintf+0x40>
9d005d18:	00001825 	move	v1,zero
9d005d1c:	2443ffff 	addiu	v1,v0,-1
9d005d20:	04410008 	bgez	v0,9d005d44 <__vsnprintf+0x64>
9d005d24:	afa30020 	sw	v1,32(sp)
9d005d28:	3c02a000 	lui	v0,0xa000
9d005d2c:	2403004f 	li	v1,79
9d005d30:	ac430004 	sw	v1,4(v0)
9d005d34:	2402ffff 	li	v0,-1
9d005d38:	8fbf0034 	lw	ra,52(sp)
9d005d3c:	03e00008 	jr	ra
9d005d40:	27bd0038 	addiu	sp,sp,56
9d005d44:	afa40028 	sw	a0,40(sp)
9d005d48:	afa40024 	sw	a0,36(sp)
9d005d4c:	a0800000 	sb	zero,0(a0)
9d005d50:	0f40183c 	jal	9d0060f0 <__vfprintf>
9d005d54:	27a40010 	addiu	a0,sp,16
9d005d58:	1000fff8 	b	9d005d3c <__vsnprintf+0x5c>
9d005d5c:	8fbf0034 	lw	ra,52(sp)

Disassembly of section .text.a_clz_64:

9d005d60 <a_clz_64>:
9d005d60:	10a00003 	beqz	a1,9d005d70 <a_clz_64+0x10>
9d005d64:	24030020 	li	v1,32
9d005d68:	00a02025 	move	a0,a1
9d005d6c:	00001825 	move	v1,zero
9d005d70:	00042c02 	srl	a1,a0,0x10
9d005d74:	14a00004 	bnez	a1,9d005d88 <a_clz_64+0x28>
9d005d78:	00051202 	srl	v0,a1,0x8
9d005d7c:	34630010 	ori	v1,v1,0x10
9d005d80:	00802825 	move	a1,a0
9d005d84:	00051202 	srl	v0,a1,0x8
9d005d88:	14400004 	bnez	v0,9d005d9c <a_clz_64+0x3c>
9d005d8c:	00022102 	srl	a0,v0,0x4
9d005d90:	34630008 	ori	v1,v1,0x8
9d005d94:	00a01025 	move	v0,a1
9d005d98:	00022102 	srl	a0,v0,0x4
9d005d9c:	54800004 	bnezl	a0,9d005db0 <a_clz_64+0x50>
9d005da0:	00041082 	srl	v0,a0,0x2
9d005da4:	34630004 	ori	v1,v1,0x4
9d005da8:	00402025 	move	a0,v0
9d005dac:	00041082 	srl	v0,a0,0x2
9d005db0:	54400004 	bnezl	v0,9d005dc4 <a_clz_64+0x64>
9d005db4:	00021042 	srl	v0,v0,0x1
9d005db8:	34630002 	ori	v1,v1,0x2
9d005dbc:	00801025 	move	v0,a0
9d005dc0:	00021042 	srl	v0,v0,0x1
9d005dc4:	38420001 	xori	v0,v0,0x1
9d005dc8:	03e00008 	jr	ra
9d005dcc:	00431025 	or	v0,v0,v1

Disassembly of section .text.sitofp:

9d005dd0 <__floatsisf>:
9d005dd0:	3c018000 10800012 00813024 04810002     ...<....$0......
9d005de0:	00000000 00042023                       ....# ..

9d005de8 <i40>:
9d005de8:	2405009e 	li	a1,158
9d005dec:	70873820 	clz	a3,a0
9d005df0:	00a72823 	subu	a1,a1,a3
9d005df4:	00e42004 	sllv	a0,a0,a3
9d005df8:	24840080 	addiu	a0,a0,128
9d005dfc:	2c880080 	sltiu	t0,a0,128
9d005e00:	00a82821 	addu	a1,a1,t0
9d005e04:	00044203 	sra	t0,a0,0x8
9d005e08:	31080001 	andi	t0,t0,0x1
9d005e0c:	00882023 	subu	a0,a0,t0
9d005e10:	00042040 	sll	a0,a0,0x1
9d005e14:	00042242 	srl	a0,a0,0x9
9d005e18:	000545c0 	sll	t0,a1,0x17
9d005e1c:	00882025 	or	a0,a0,t0

9d005e20 <i39>:
9d005e20:	00861025 	or	v0,a0,a2

9d005e24 <E999>:
9d005e24:	03e00008 	jr	ra
9d005e28:	00000000 	nop
9d005e2c:	00000000 	nop

Disassembly of section .text.__string_out:

9d005e30 <__out>:
9d005e30:	8c820010 	lw	v0,16(a0)
9d005e34:	27bdffe0 	addiu	sp,sp,-32
9d005e38:	afb00014 	sw	s0,20(sp)
9d005e3c:	00808025 	move	s0,a0
9d005e40:	8c840014 	lw	a0,20(a0)
9d005e44:	afb10018 	sw	s1,24(sp)
9d005e48:	00c2882b 	sltu	s1,a2,v0
9d005e4c:	0051300a 	movz	a2,v0,s1
9d005e50:	afbf001c 	sw	ra,28(sp)
9d005e54:	0f401869 	jal	9d0061a4 <memcpy>
9d005e58:	00c08825 	move	s1,a2
9d005e5c:	8e020014 	lw	v0,20(s0)
9d005e60:	8e060010 	lw	a2,16(s0)
9d005e64:	00511021 	addu	v0,v0,s1
9d005e68:	00d18823 	subu	s1,a2,s1
9d005e6c:	ae110010 	sw	s1,16(s0)
9d005e70:	ae020014 	sw	v0,20(s0)
9d005e74:	a0400000 	sb	zero,0(v0)
9d005e78:	8fbf001c 	lw	ra,28(sp)
9d005e7c:	8fb10018 	lw	s1,24(sp)
9d005e80:	8fb00014 	lw	s0,20(sp)
9d005e84:	03e00008 	jr	ra
9d005e88:	27bd0020 	addiu	sp,sp,32

Disassembly of section .text.__fmt_state:

9d005e8c <__fmt_state>:
9d005e8c:	3c069d00 	lui	a2,0x9d00
9d005e90:	00001025 	move	v0,zero
9d005e94:	24c66330 	addiu	a2,a2,25392
9d005e98:	00021840 	sll	v1,v0,0x1
9d005e9c:	00661821 	addu	v1,v1,a2
9d005ea0:	80670000 	lb	a3,0(v1)
9d005ea4:	54e00003 	bnezl	a3,9d005eb4 <__fmt_state+0x28>
9d005ea8:	8c850000 	lw	a1,0(a0)
9d005eac:	03e00008 	jr	ra
9d005eb0:	90620001 	lbu	v0,1(v1)
9d005eb4:	80a80000 	lb	t0,0(a1)
9d005eb8:	15070009 	bne	t0,a3,9d005ee0 <__fmt_state+0x54>
9d005ebc:	24420001 	addiu	v0,v0,1
9d005ec0:	90620001 	lbu	v0,1(v1)
9d005ec4:	24a50001 	addiu	a1,a1,1
9d005ec8:	ac850000 	sw	a1,0(a0)
9d005ecc:	2c43000b 	sltiu	v1,v0,11
9d005ed0:	1460fff2 	bnez	v1,9d005e9c <__fmt_state+0x10>
9d005ed4:	00021840 	sll	v1,v0,0x1
9d005ed8:	03e00008 	jr	ra
9d005edc:	00000000 	nop
9d005ee0:	1000fffa 	b	9d005ecc <__fmt_state+0x40>
9d005ee4:	304200ff 	andi	v0,v0,0xff

Disassembly of section .text.main_entry:

9d005ee8 <_main_entry>:
9d005ee8:	3c040000 	lui	a0,0x0
9d005eec:	27bdffe8 	addiu	sp,sp,-24
9d005ef0:	24840000 	addiu	a0,a0,0
9d005ef4:	10800003 	beqz	a0,9d005f04 <_main_entry+0x1c>
9d005ef8:	afbf0014 	sw	ra,20(sp)
9d005efc:	0080f809 	jalr	a0
9d005f00:	00000000 	nop
9d005f04:	30840000 	andi	a0,a0,0x0
9d005f08:	30a50000 	andi	a1,a1,0x0
9d005f0c:	3c089d00 	lui	t0,0x9d00
9d005f10:	2508476c 	addiu	t0,t0,18284
9d005f14:	0100f809 	jalr	t0
9d005f18:	00000000 	nop

9d005f1c <__crt0_exit>:
9d005f1c:	3c020000 24420000 10400003 00000000     ...<..B$..@.....
9d005f2c:	0040f809 00000000 1000fff9 00000000     ..@.............

Disassembly of section .text.__pop_float:

9d005f3c <__pop_float>:
9d005f3c:	28a30080 	slti	v1,a1,128
9d005f40:	14600010 	bnez	v1,9d005f84 <__pop_float+0x48>
9d005f44:	00001025 	move	v0,zero
9d005f48:	28a20082 	slti	v0,a1,130
9d005f4c:	14400003 	bnez	v0,9d005f5c <__pop_float+0x20>
9d005f50:	24030083 	li	v1,131
9d005f54:	14a3000b 	bne	a1,v1,9d005f84 <__pop_float+0x48>
9d005f58:	00001025 	move	v0,zero
9d005f5c:	8cc20000 	lw	v0,0(a2)
9d005f60:	24420007 	addiu	v0,v0,7
9d005f64:	7c021004 	ins	v0,zero,0x0,0x3
9d005f68:	24430008 	addiu	v1,v0,8
9d005f6c:	acc30000 	sw	v1,0(a2)
9d005f70:	8c430004 	lw	v1,4(v0)
9d005f74:	8c420000 	lw	v0,0(v0)
9d005f78:	ac830004 	sw	v1,4(a0)
9d005f7c:	ac820000 	sw	v0,0(a0)
9d005f80:	24020001 	li	v0,1
9d005f84:	03e00008 	jr	ra
9d005f88:	00000000 	nop

Disassembly of section .text:

9d005f8c <__floatunsisf>:
9d005f8c:	27bdffe8 	addiu	sp,sp,-24
9d005f90:	0481000c 	bgez	a0,9d005fc4 <__floatunsisf+0x38>
9d005f94:	afbf0014 	sw	ra,20(sp)
9d005f98:	00801025 	move	v0,a0
9d005f9c:	00021042 	srl	v0,v0,0x1
9d005fa0:	30840001 	andi	a0,a0,0x1
9d005fa4:	0f401774 	jal	9d005dd0 <__floatsisf>
9d005fa8:	00822025 	or	a0,a0,v0
9d005fac:	00402825 	move	a1,v0
9d005fb0:	0f4011ff 	jal	9d0047fc <__addsf3>
9d005fb4:	00402025 	move	a0,v0
9d005fb8:	8fbf0014 	lw	ra,20(sp)
9d005fbc:	03e00008 	jr	ra
9d005fc0:	27bd0018 	addiu	sp,sp,24
9d005fc4:	0f401774 	jal	9d005dd0 <__floatsisf>
9d005fc8:	00000000 	nop
9d005fcc:	1000fffb 	b	9d005fbc <__floatunsisf+0x30>
9d005fd0:	8fbf0014 	lw	ra,20(sp)

Disassembly of section .text._bootstrap_exception_handler:

9d005fd4 <_bootstrap_exception_handler>:
9d005fd4:	3c020000 	lui	v0,0x0
9d005fd8:	24420000 	addiu	v0,v0,0
9d005fdc:	10400005 	beqz	v0,9d005ff4 <_bootstrap_exception_handler+0x20>
9d005fe0:	3c020000 	lui	v0,0x0
9d005fe4:	24420000 	addiu	v0,v0,0
9d005fe8:	10400003 	beqz	v0,9d005ff8 <_bootstrap_exception_handler+0x24>
9d005fec:	3c029d00 	lui	v0,0x9d00
9d005ff0:	7000003f 	sdbbp
9d005ff4:	3c029d00 	lui	v0,0x9d00
9d005ff8:	244260ac 	addiu	v0,v0,24748
9d005ffc:	10400005 	beqz	v0,9d006014 <_bootstrap_exception_handler+0x40>
9d006000:	00000000 	nop
9d006004:	27bdffe8 	addiu	sp,sp,-24
9d006008:	afbf0014 	sw	ra,20(sp)
9d00600c:	0040f809 	jalr	v0
9d006010:	00000000 	nop
9d006014:	1000ffff 	b	9d006014 <_bootstrap_exception_handler+0x40>
9d006018:	00000000 	nop

Disassembly of section .text._general_exception_handler:

9d00601c <_general_exception_handler>:
9d00601c:	3c020000 	lui	v0,0x0
9d006020:	24420000 	addiu	v0,v0,0
9d006024:	10400005 	beqz	v0,9d00603c <_general_exception_handler+0x20>
9d006028:	3c020000 	lui	v0,0x0
9d00602c:	24420000 	addiu	v0,v0,0
9d006030:	10400003 	beqz	v0,9d006040 <_general_exception_handler+0x24>
9d006034:	3c029d00 	lui	v0,0x9d00
9d006038:	7000003f 	sdbbp
9d00603c:	3c029d00 	lui	v0,0x9d00
9d006040:	244260ac 	addiu	v0,v0,24748
9d006044:	10400005 	beqz	v0,9d00605c <_general_exception_handler+0x40>
9d006048:	00000000 	nop
9d00604c:	27bdffe8 	addiu	sp,sp,-24
9d006050:	afbf0014 	sw	ra,20(sp)
9d006054:	0040f809 	jalr	v0
9d006058:	00000000 	nop
9d00605c:	1000ffff 	b	9d00605c <_general_exception_handler+0x40>
9d006060:	00000000 	nop

Disassembly of section .vector_default:

9d006064 <_DefaultInterrupt>:
9d006064:	3c020000 	lui	v0,0x0
9d006068:	24420000 	addiu	v0,v0,0
9d00606c:	10400007 	beqz	v0,9d00608c <_DefaultInterrupt+0x28>
9d006070:	3c020000 	lui	v0,0x0
9d006074:	24420000 	addiu	v0,v0,0
9d006078:	50400005 	beqzl	v0,9d006090 <_DefaultInterrupt+0x2c>
9d00607c:	3c029d00 	lui	v0,0x9d00
9d006080:	7000003f 	sdbbp
9d006084:	03e00008 	jr	ra
9d006088:	00000000 	nop
9d00608c:	3c029d00 	lui	v0,0x9d00
9d006090:	244260ac 	addiu	v0,v0,24748
9d006094:	10400003 	beqz	v0,9d0060a4 <_DefaultInterrupt+0x40>
9d006098:	00000000 	nop
9d00609c:	0040f809 	jalr	v0
9d0060a0:	00000000 	nop
9d0060a4:	03e00008 	jr	ra
9d0060a8:	00000000 	nop

Disassembly of section .text:

9d0060ac <__pic32_software_reset>:
9d0060ac:	41606000 	di
9d0060b0:	000000c0 	ehb
9d0060b4:	3c03aa99 	lui	v1,0xaa99
9d0060b8:	3c02bf81 	lui	v0,0xbf81
9d0060bc:	24636655 	addiu	v1,v1,26197
9d0060c0:	ac40f230 	sw	zero,-3536(v0)
9d0060c4:	ac43f230 	sw	v1,-3536(v0)
9d0060c8:	3c035566 	lui	v1,0x5566
9d0060cc:	346399aa 	ori	v1,v1,0x99aa
9d0060d0:	ac43f230 	sw	v1,-3536(v0)
9d0060d4:	3c02bf81 	lui	v0,0xbf81
9d0060d8:	24030001 	li	v1,1
9d0060dc:	ac43f618 	sw	v1,-2536(v0)
9d0060e0:	3c02bf81 	lui	v0,0xbf81
9d0060e4:	8c42f610 	lw	v0,-2544(v0)
9d0060e8:	0b40182d 	j	9d0060b4 <__pic32_software_reset+0x8>
9d0060ec:	00000000 	nop

Disassembly of section .text.__vfprintf:

9d0060f0 <__vfprintf>:
9d0060f0:	27bdffe0 	addiu	sp,sp,-32
9d0060f4:	afb00018 	sw	s0,24(sp)
9d0060f8:	afa60010 	sw	a2,16(sp)
9d0060fc:	00808025 	move	s0,a0
9d006100:	afbf001c 	sw	ra,28(sp)
9d006104:	0f400bc2 	jal	9d002f08 <__printf_core>
9d006108:	27a60010 	addiu	a2,sp,16
9d00610c:	8e030004 	lw	v1,4(s0)
9d006110:	8fbf001c 	lw	ra,28(sp)
9d006114:	2404ffff 	li	a0,-1
9d006118:	30630010 	andi	v1,v1,0x10
9d00611c:	0083100b 	movn	v0,a0,v1
9d006120:	8fb00018 	lw	s0,24(sp)
9d006124:	03e00008 	jr	ra
9d006128:	27bd0020 	addiu	sp,sp,32

Disassembly of section .text:

9d00612c <__lshrdi3>:
9d00612c:	10c00008 	beqz	a2,9d006150 <__lshrdi3+0x24>
9d006130:	00801025 	move	v0,a0
9d006134:	24030020 	li	v1,32
9d006138:	00661823 	subu	v1,v1,a2
9d00613c:	1c600006 	bgtz	v1,9d006158 <__lshrdi3+0x2c>
9d006140:	00c52006 	srlv	a0,a1,a2
9d006144:	00002025 	move	a0,zero
9d006148:	00c51006 	srlv	v0,a1,a2
9d00614c:	00802825 	move	a1,a0
9d006150:	03e00008 	jr	ra
9d006154:	00a01825 	move	v1,a1
9d006158:	00c21006 	srlv	v0,v0,a2
9d00615c:	00652804 	sllv	a1,a1,v1
9d006160:	1000fffa 	b	9d00614c <__lshrdi3+0x20>
9d006164:	00451025 	or	v0,v0,a1

9d006168 <__ashldi3>:
9d006168:	10c00008 	beqz	a2,9d00618c <__ashldi3+0x24>
9d00616c:	00801025 	move	v0,a0
9d006170:	24040020 	li	a0,32
9d006174:	00862023 	subu	a0,a0,a2
9d006178:	5c800006 	bgtzl	a0,9d006194 <__ashldi3+0x2c>
9d00617c:	00c21804 	sllv	v1,v0,a2
9d006180:	00001825 	move	v1,zero
9d006184:	00c22804 	sllv	a1,v0,a2
9d006188:	00601025 	move	v0,v1
9d00618c:	03e00008 	jr	ra
9d006190:	00a01825 	move	v1,a1
9d006194:	00c52804 	sllv	a1,a1,a2
9d006198:	00821006 	srlv	v0,v0,a0
9d00619c:	1000fffa 	b	9d006188 <__ashldi3+0x20>
9d0061a0:	00a22825 	or	a1,a1,v0

Disassembly of section .text.memcpy:

9d0061a4 <memcpy>:
9d0061a4:	00801025 	move	v0,a0
9d0061a8:	00001825 	move	v1,zero
9d0061ac:	14c30003 	bne	a2,v1,9d0061bc <memcpy+0x18>
9d0061b0:	00a33821 	addu	a3,a1,v1
9d0061b4:	03e00008 	jr	ra
9d0061b8:	00000000 	nop
9d0061bc:	90e70000 	lbu	a3,0(a3)
9d0061c0:	00432021 	addu	a0,v0,v1
9d0061c4:	24630001 	addiu	v1,v1,1
9d0061c8:	1000fff8 	b	9d0061ac <memcpy+0x8>
9d0061cc:	a0870000 	sb	a3,0(a0)

Disassembly of section .text.__wrap_sprintf:

9d0061d0 <_dsprintf_eE>:
9d0061d0:	27bdffe0 	addiu	sp,sp,-32
9d0061d4:	afa60028 	sw	a2,40(sp)
9d0061d8:	27a60028 	addiu	a2,sp,40
9d0061dc:	afbf001c 	sw	ra,28(sp)
9d0061e0:	afa7002c 	sw	a3,44(sp)
9d0061e4:	0f401888 	jal	9d006220 <__vsprintf>
9d0061e8:	afa60010 	sw	a2,16(sp)
9d0061ec:	8fbf001c 	lw	ra,28(sp)
9d0061f0:	03e00008 	jr	ra
9d0061f4:	27bd0020 	addiu	sp,sp,32

Disassembly of section .text.strcpy:

9d0061f8 <strcpy>:
9d0061f8:	27bdffe8 	addiu	sp,sp,-24
9d0061fc:	afb00010 	sw	s0,16(sp)
9d006200:	afbf0014 	sw	ra,20(sp)
9d006204:	0f40189b 	jal	9d00626c <stpcpy>
9d006208:	00808025 	move	s0,a0
9d00620c:	8fbf0014 	lw	ra,20(sp)
9d006210:	02001025 	move	v0,s0
9d006214:	8fb00010 	lw	s0,16(sp)
9d006218:	03e00008 	jr	ra
9d00621c:	27bd0018 	addiu	sp,sp,24

Disassembly of section .text.__vsprintf:

9d006220 <__vsprintf>:
9d006220:	00c03825 	move	a3,a2
9d006224:	00a03025 	move	a2,a1
9d006228:	3c057fff 	lui	a1,0x7fff
9d00622c:	27bdffe8 	addiu	sp,sp,-24
9d006230:	afbf0014 	sw	ra,20(sp)
9d006234:	0f401738 	jal	9d005ce0 <__vsnprintf>
9d006238:	34a5ffff 	ori	a1,a1,0xffff
9d00623c:	8fbf0014 	lw	ra,20(sp)
9d006240:	03e00008 	jr	ra
9d006244:	27bd0018 	addiu	sp,sp,24

Disassembly of section .text.memset:

9d006248 <memset>:
9d006248:	00801025 	move	v0,a0
9d00624c:	00863021 	addu	a2,a0,a2
9d006250:	00801825 	move	v1,a0
9d006254:	14660003 	bne	v1,a2,9d006264 <memset+0x1c>
9d006258:	24630001 	addiu	v1,v1,1
9d00625c:	03e00008 	jr	ra
9d006260:	00000000 	nop
9d006264:	1000fffb 	b	9d006254 <memset+0xc>
9d006268:	a065ffff 	sb	a1,-1(v1)

Disassembly of section .text.stpcpy:

9d00626c <stpcpy>:
9d00626c:	24a50001 	addiu	a1,a1,1
9d006270:	80a3ffff 	lb	v1,-1(a1)
9d006274:	00801025 	move	v0,a0
9d006278:	24840001 	addiu	a0,a0,1
9d00627c:	1460fffb 	bnez	v1,9d00626c <stpcpy>
9d006280:	a083ffff 	sb	v1,-1(a0)
9d006284:	03e00008 	jr	ra
9d006288:	00000000 	nop

Disassembly of section .dinit:

9d00628c <.dinit>:
9d00628c:	a0000000 	sb	zero,0(zero)
9d006290:	00000004 	sllv	zero,zero,zero
9d006294:	00000000 	nop
9d006298:	a0000004 	sb	zero,4(zero)
9d00629c:	00000004 	sllv	zero,zero,zero
	...
9d0062a8:	22222222 	addi	v0,s1,8738

Disassembly of section .text.__sio_sprintf_f:

9d0062ac <__sio_sprintf_f>:
9d0062ac:	27bdffe8 	addiu	sp,sp,-24
9d0062b0:	afbf0014 	sw	ra,20(sp)
9d0062b4:	0f4007c0 	jal	9d001f00 <__fmt_fp>
9d0062b8:	00000000 	nop
9d0062bc:	8fbf0014 	lw	ra,20(sp)
9d0062c0:	03e00008 	jr	ra
9d0062c4:	27bd0018 	addiu	sp,sp,24

Disassembly of section .text.tolower:

9d0062c8 <tolower>:
9d0062c8:	2483ffbf 	addiu	v1,a0,-65
9d0062cc:	2c63001a 	sltiu	v1,v1,26
9d0062d0:	10600002 	beqz	v1,9d0062dc <tolower+0x14>
9d0062d4:	00801025 	move	v0,a0
9d0062d8:	34820020 	ori	v0,a0,0x20
9d0062dc:	03e00008 	jr	ra
9d0062e0:	00000000 	nop

Disassembly of section .text.__tolower_l:

9d0062e4 <__tolower_l>:
9d0062e4:	27bdffe8 	addiu	sp,sp,-24
9d0062e8:	afbf0014 	sw	ra,20(sp)
9d0062ec:	0f4018b2 	jal	9d0062c8 <tolower>
9d0062f0:	00000000 	nop
9d0062f4:	8fbf0014 	lw	ra,20(sp)
9d0062f8:	03e00008 	jr	ra
9d0062fc:	27bd0018 	addiu	sp,sp,24

Disassembly of section .text:

9d006318 <_nmi_handler>:
9d006318:	401a6000 	mfc0	k0,c0_status
9d00631c:	3c1bffbf 	lui	k1,0xffbf
9d006320:	377bffff 	ori	k1,k1,0xffff
9d006324:	035bd024 	and	k0,k0,k1
9d006328:	409a6000 	mtc0	k0,c0_status
9d00632c:	42000018 	eret

Disassembly of section .rodata:

9d006330 <state_table>:
9d006330:	096c0768 906a834c c07aa074 88688000     h.l.L.j.t.z...h.
9d006340:	826c8400 00008100                       ..l.....

Disassembly of section .text.strlen:

9d006348 <strlen>:
9d006348:	00801025 	move	v0,a0
9d00634c:	80430000 	lb	v1,0(v0)
9d006350:	5460fffe 	bnezl	v1,9d00634c <strlen+0x4>
9d006354:	24420001 	addiu	v0,v0,1
9d006358:	03e00008 	jr	ra
9d00635c:	00441023 	subu	v0,v0,a0

Disassembly of section .text._on_reset:

9d006360 <_on_reset>:
9d006360:	03e00008 	jr	ra
9d006364:	00000000 	nop

Disassembly of section .text._on_bootstrap:

9d006368 <_on_bootstrap>:
9d006368:	03e00008 	jr	ra
9d00636c:	00000000 	nop

Disassembly of section .text.__dummy_fmt3:

9d006370 <__fmt_d>:
9d006370:	03e00008 	jr	ra
9d006374:	00001025 	move	v0,zero

Disassembly of section .text.__dummy_fmt4:

9d006378 <__fmt_a>:
9d006378:	03e00008 	jr	ra
9d00637c:	00001025 	move	v0,zero

Disassembly of section .text.__dummy_fmts:

9d006380 <__fmt_s>:
9d006380:	03e00008 	jr	ra
9d006384:	00001025 	move	v0,zero
